ld-linux-x86-64.so.2:__tls_get_addr
libc.so.6:__cxa_atexit
libc.so.6:__isoc99_sscanf
libc.so.6:__memcpy_chk
libc.so.6:__stack_chk_fail
libc.so.6:abort
libc.so.6:close
libc.so.6:dlsym
libc.so.6:getenv
libc.so.6:getpid
libc.so.6:isspace
libc.so.6:memcmp
libc.so.6:memcpy
libc.so.6:memmove
libc.so.6:memset
libc.so.6:mkstemp
libc.so.6:pthread_mutex_lock
libc.so.6:pthread_mutex_unlock
libc.so.6:pthread_once
libc.so.6:snprintf
libc.so.6:strcpy
libc.so.6:strdup
libc.so.6:strlen
libc.so.6:strncpy
libc.so.6:strtol
libc.so.6:wcslen
libc.so.6:wmemcpy
libgcc_s.so.1:_Unwind_Resume
librocclr.so.5.1:AMD_DIRECT_DISPATCH
librocclr.so.5.1:AMD_LOG_LEVEL
librocclr.so.5.1:AMD_LOG_MASK
librocclr.so.5.1:AMD_SERIALIZE_COPY
librocclr.so.5.1:GPU_NUM_MEM_DEPENDENCY
librocclr.so.5.1:GPU_STREAMOPS_CP_WAIT
librocclr.so.5.1:HIP_FORCE_QUEUE_PROFILING
librocclr.so.5.1:_Z23getOclCommandKindStringj
librocclr.so.5.1:_ZN13activity_prof14CallbacksTable6table_E
librocclr.so.5.1:_ZN3amd10BufferRect6createEPKmS2_mm
librocclr.so.5.1:_ZN3amd10HeapObjectdlEPv
librocclr.so.5.1:_ZN3amd10HeapObjectnwEm
librocclr.so.5.1:_ZN3amd10HostThreadC1Ev
librocclr.so.5.1:_ZN3amd10log_printfENS_8LogLevelEPKciPmS2_z
librocclr.so.5.1:_ZN3amd10log_printfENS_8LogLevelEPKciS2_z
librocclr.so.5.1:_ZN3amd12report_fatalEPKciS1_
librocclr.so.5.1:_ZN3amd14IS_PROFILER_ONE
librocclr.so.5.1:_ZN3amd16KernelParameters3setEmmPKvb
librocclr.so.5.1:_ZN3amd17ExtObjectsCommand14validateMemoryEv
librocclr.so.5.1:_ZN3amd19OneMemoryArgCommand18validatePeerMemoryEv
librocclr.so.5.1:_ZN3amd20CopyMemoryP2PCommand14validateMemoryEv
librocclr.so.5.1:_ZN3amd20NDRangeKernelCommand18captureAndValidateEv
librocclr.so.5.1:_ZN3amd20NDRangeKernelCommandC1ERNS_9HostQueueERKSt6vectorIPNS_5EventESaIS5_EERNS_6KernelERKNS_16NDRangeContainerEjjjjmmjb
librocclr.so.5.1:_ZN3amd20TwoMemoryArgsCommand18validatePeerMemoryEv
librocclr.so.5.1:_ZN3amd22ReferenceCountedObject6retainEv
librocclr.so.5.1:_ZN3amd22ReferenceCountedObject7releaseEv
librocclr.so.5.1:_ZN3amd25TransferBufferFileCommand14validateMemoryEv
librocclr.so.5.1:_ZN3amd2Os11loadLibraryEPKc
librocclr.so.5.1:_ZN3amd2Os13GetFileHandleEPKcPiPm
librocclr.so.5.1:_ZN3amd2Os15CloseFileHandleEi
librocclr.so.5.1:_ZN3amd2Os15MemoryUnmapFileEPKvm
librocclr.so.5.1:_ZN3amd2Os16GetURIFromMemoryEPKvmRNSt7__cxx1112basic_stringIcSt11char_traitsIcESaIcEEE
librocclr.so.5.1:_ZN3amd2Os17MemoryMapFileDescEimmPPKv
librocclr.so.5.1:_ZN3amd2Os20setPreferredNumaNodeEj
librocclr.so.5.1:_ZN3amd2Os22MemoryMapFileTruncatedEPKcPPKvm
librocclr.so.5.1:_ZN3amd2Os5sleepEl
librocclr.so.5.1:_ZN3amd3Elf10getElfSizeEPKv
librocclr.so.5.1:_ZN3amd4Flag6flags_E
librocclr.so.5.1:_ZN3amd5Agent13postEventFreeEP9_cl_event
librocclr.so.5.1:_ZN3amd5Agent20enabledCapabilities_E
librocclr.so.5.1:_ZN3amd5Event11setCallbackEiPFvP9_cl_eventiPvES3_
librocclr.so.5.1:_ZN3amd5Event12nullWaitListE
librocclr.so.5.1:_ZN3amd5Event14notifyCmdQueueEb
librocclr.so.5.1:_ZN3amd5Event15awaitCompletionEv
librocclr.so.5.1:_ZN3amd5Event9setStatusEim
librocclr.so.5.1:_ZN3amd5EventC2Ev
librocclr.so.5.1:_ZN3amd5EventD2Ev
librocclr.so.5.1:_ZN3amd5Image10createViewERKNS_7ContextERKNS0_6FormatEPN6device13VirtualDeviceEjm
librocclr.so.5.1:_ZN3amd5Image18copyToBackingStoreEPv
librocclr.so.5.1:_ZN3amd5Image18validateDimensionsERKSt6vectorIPNS_6DeviceESaIS3_EEjmmmm
librocclr.so.5.1:_ZN3amd5ImageC1ERNS_6BufferEjmRKNS0_6FormatEmmmmm
librocclr.so.5.1:_ZN3amd5ImageC1ERNS_7ContextEjmRKNS0_6FormatEmmmmmj
librocclr.so.5.1:_ZN3amd5ImageC2ERNS_7ContextEjmRKNS0_6FormatEmmmmmj
librocclr.so.5.1:_ZN3amd6Buffer6createEPvbbb
librocclr.so.5.1:_ZN3amd6Device10getDevicesEmb
librocclr.so.5.1:_ZN3amd6IS_HIPE
librocclr.so.5.1:_ZN3amd6KernelC1ERNS_7ProgramERKNS_6SymbolERKNSt7__cxx1112basic_stringIcSt11char_traitsIcESaIcEEE
librocclr.so.5.1:_ZN3amd6Memory15getDeviceMemoryERKNS_6DeviceEb
librocclr.so.5.1:_ZN3amd6Memory18copyToBackingStoreEPv
librocclr.so.5.1:_ZN3amd6Memory6createEPvbbb
librocclr.so.5.1:_ZN3amd6MemoryC2ERNS_7ContextEjmmPv
librocclr.so.5.1:_ZN3amd6MemoryC2ERS0_mmmj
librocclr.so.5.1:_ZN3amd6MemoryD2Ev
librocclr.so.5.1:_ZN3amd6MemorydlEPv
librocclr.so.5.1:_ZN3amd6MemorydlEPvRKNS_7ContextE
librocclr.so.5.1:_ZN3amd6MemorynwEmRKNS_7ContextE
librocclr.so.5.1:_ZN3amd7Command16releaseResourcesEv
librocclr.so.5.1:_ZN3amd7Command7enqueueEv
librocclr.so.5.1:_ZN3amd7CommandC2ERNS_9HostQueueEjRKSt6vectorIPNS_5EventESaIS5_EEjPKS4_
librocclr.so.5.1:_ZN3amd7Context15checkPropertiesEPKlPNS0_4InfoE
librocclr.so.5.1:_ZN3amd7Context6createEPKl
librocclr.so.5.1:_ZN3amd7ContextC1ERKSt6vectorIPNS_6DeviceESaIS3_EERKNS0_4InfoE
librocclr.so.5.1:_ZN3amd7Monitor10finishLockEv
librocclr.so.5.1:_ZN3amd7Monitor12finishUnlockEv
librocclr.so.5.1:_ZN3amd7MonitorC1EPKcb
librocclr.so.5.1:_ZN3amd7NDRangeC1Em
librocclr.so.5.1:_ZN3amd7NDRangeD1Ev
librocclr.so.5.1:_ZN3amd7Program16addDeviceProgramERNS_6DeviceEPKvmbPNS_6option7OptionsEPKS0_imNSt7__cxx1112basic_stringIcSt11char_traitsIcESaIcEEE
librocclr.so.5.1:_ZN3amd7Program4loadERKSt6vectorIPNS_6DeviceESaIS3_EE
librocclr.so.5.1:_ZN3amd7Program5buildERKSt6vectorIPNS_6DeviceESaIS3_EEPKcPFvP11_cl_programPvESC_bb
librocclr.so.5.1:_ZN3amd7Program6unloadEv
librocclr.so.5.1:_ZN3amd7Runtime12initialized_E
librocclr.so.5.1:_ZN3amd7Runtime4initEv
librocclr.so.5.1:_ZN3amd7details7thread_E
librocclr.so.5.1:_ZN3amd9HostQueue20getLastQueuedCommandEb
librocclr.so.5.1:_ZN3amd9HostQueue6finishEv
librocclr.so.5.1:_ZN3amd9HostQueueC1ERNS_7ContextERNS_6DeviceEmjNS_12CommandQueue8PriorityERKSt6vectorIjSaIjEE
librocclr.so.5.1:_ZN3amd9MemObjMap10FindMemObjEPKv
librocclr.so.5.1:_ZN3amd9MemObjMap12RemoveMemObjEPKv
librocclr.so.5.1:_ZN3amd9MemObjMap5PurgeEPNS_6DeviceE
librocclr.so.5.1:_ZN3amd9MemObjMap9AddMemObjEPKvPNS_6MemoryE
librocclr.so.5.1:_ZN3amd9Semaphore4postEv
librocclr.so.5.1:_ZN3amd9SvmBuffer4freeERKNS_7ContextEPv
librocclr.so.5.1:_ZN3amd9SvmBuffer6mallocERNS_7ContextEmmmPKNS_6DeviceE
librocclr.so.5.1:_ZN3amd9SvmBuffer8mallocedEPKv
librocclr.so.5.1:_ZNK3amd3Isa7isaNameB5cxx11Ev
librocclr.so.5.1:_ZNK3amd5Image14validateRegionERKNS_7Coord3DES3_
librocclr.so.5.1:_ZNK3amd5Image15isRowSliceValidEmmmm
librocclr.so.5.1:_ZNK3amd5Image17isEntirelyCoveredERKNS_7Coord3DES3_
librocclr.so.5.1:_ZNK3amd5Image6Format11isSupportedERKNS_7ContextEjm
librocclr.so.5.1:_ZNK3amd5Image6Format14getElementSizeEv
librocclr.so.5.1:_ZNK3amd5Image6Format14getNumChannelsEv
librocclr.so.5.1:_ZNK3amd5Image6Format7isValidEv
librocclr.so.5.1:_ZNK3amd6Buffer14validateRegionERKNS_7Coord3DES3_
librocclr.so.5.1:_ZNK3amd6Buffer17isEntirelyCoveredERKNS_7Coord3DES3_
librocclr.so.5.1:_ZNK3amd6Kernel15getDeviceKernelERKNS_6DeviceE
librocclr.so.5.1:_ZNK3amd6Kernel9signatureEv
librocclr.so.5.1:_ZNK3amd7Command7contextEv
librocclr.so.5.1:_ZNK3amd7Program10findSymbolEPKc
librocclr.so.5.1:_ZNK3amd7Program16getDeviceProgramERKNS_6DeviceE
librocclr.so.5.1:_ZNK6device7Program15getLoweredNamesEPSt6vectorINSt7__cxx1112basic_stringIcSt11char_traitsIcESaIcEEESaIS7_EE
librocclr.so.5.1:_ZNK6device7Program16getDemangledNameERKNSt7__cxx1112basic_stringIcSt11char_traitsIcESaIcEEERS6_
librocclr.so.5.1:_ZNK6device7Program23getGlobalVarFromCodeObjEPSt6vectorINSt7__cxx1112basic_stringIcSt11char_traitsIcESaIcEEESaIS7_EE
librocclr.so.5.1:_ZNK6device7Program24getGlobalFuncFromCodeObjEPSt6vectorINSt7__cxx1112basic_stringIcSt11char_traitsIcESaIcEEESaIS7_EE
librocclr.so.5.1:_ZNK6device8ClBinary4dataEv
librocclr.so.5.1:_ZTIN3amd5ImageE
librocclr.so.5.1:_ZTIN3amd6BufferE
librocclr.so.5.1:_ZTIN3amd7CommandE
librocclr.so.5.1:_ZTVN3amd24AcquireExtObjectsCommandE
librocclr.so.5.1:_ZTVN3amd24ReleaseExtObjectsCommandE
librocclr.so.5.1:_ZTVN3amd25TransferBufferFileCommandE
librocclr.so.5.1:_ZTVN3amd6BufferE
librocclr.so.5.1:_ZTVN3amd7CommandE
librocclr.so.5.1:_ZTVN3amd7ProgramE
librocclr.so.5.1:breakpoint
libstdc++.so.6:_ZNKSt7__cxx1112basic_stringIcSt11char_traitsIcESaIcEE13find_first_ofEPKcmm
libstdc++.so.6:_ZNKSt7__cxx1112basic_stringIcSt11char_traitsIcESaIcEE4copyEPcmm
libstdc++.so.6:_ZNKSt7__cxx1112basic_stringIcSt11char_traitsIcESaIcEE4findEPKcmm
libstdc++.so.6:_ZNKSt7__cxx1112basic_stringIcSt11char_traitsIcESaIcEE4findEcm
libstdc++.so.6:_ZNKSt7__cxx1112basic_stringIcSt11char_traitsIcESaIcEE5rfindEPKcmm
libstdc++.so.6:_ZNKSt7__cxx1112basic_stringIcSt11char_traitsIcESaIcEE7compareEPKc
libstdc++.so.6:_ZNKSt8__detail20_Prime_rehash_policy14_M_need_rehashEmmm
libstdc++.so.6:_ZNSo9_M_insertIPKvEERSoT_
libstdc++.so.6:_ZNSo9_M_insertIbEERSoT_
libstdc++.so.6:_ZNSo9_M_insertIdEERSoT_
libstdc++.so.6:_ZNSo9_M_insertImEERSoT_
libstdc++.so.6:_ZNSo9_M_insertIyEERSoT_
libstdc++.so.6:_ZNSolsEi
libstdc++.so.6:_ZNSolsEj
libstdc++.so.6:_ZNSt6localeD1Ev
libstdc++.so.6:_ZNSt6thread20hardware_concurrencyEv
libstdc++.so.6:_ZNSt7__cxx1112basic_stringIcSt11char_traitsIcESaIcEE10_M_replaceEmmPKcm
libstdc++.so.6:_ZNSt7__cxx1112basic_stringIcSt11char_traitsIcESaIcEE12_M_constructEmc
libstdc++.so.6:_ZNSt7__cxx1112basic_stringIcSt11char_traitsIcESaIcEE14_M_replace_auxEmmmc
libstdc++.so.6:_ZNSt7__cxx1112basic_stringIcSt11char_traitsIcESaIcEE7reserveEm
libstdc++.so.6:_ZNSt7__cxx1112basic_stringIcSt11char_traitsIcESaIcEE8_M_eraseEmm
libstdc++.so.6:_ZNSt7__cxx1112basic_stringIcSt11char_traitsIcESaIcEE9_M_appendEPKcm
libstdc++.so.6:_ZNSt7__cxx1112basic_stringIcSt11char_traitsIcESaIcEE9_M_assignERKS4_
libstdc++.so.6:_ZNSt7__cxx1112basic_stringIcSt11char_traitsIcESaIcEE9_M_createERmm
libstdc++.so.6:_ZNSt7__cxx1112basic_stringIcSt11char_traitsIcESaIcEED2Ev
libstdc++.so.6:_ZNSt7__cxx1112basic_stringIcSt11char_traitsIcESaIcEEpLEPKc
libstdc++.so.6:_ZNSt7__cxx1112basic_stringIwSt11char_traitsIwESaIwEE9_M_createERmm
libstdc++.so.6:_ZNSt7__cxx1119basic_ostringstreamIcSt11char_traitsIcESaIcEEC1Ev
libstdc++.so.6:_ZNSt7__cxx1119basic_ostringstreamIcSt11char_traitsIcESaIcEED1Ev
libstdc++.so.6:_ZNSt8__detail15_List_node_base11_M_transferEPS0_S1_
libstdc++.so.6:_ZNSt8__detail15_List_node_base7_M_hookEPS0_
libstdc++.so.6:_ZNSt8ios_base4InitC1Ev
libstdc++.so.6:_ZNSt8ios_base4InitD1Ev
libstdc++.so.6:_ZNSt8ios_baseD2Ev
libstdc++.so.6:_ZSt11_Hash_bytesPKvmm
libstdc++.so.6:_ZSt11__once_call
libstdc++.so.6:_ZSt15__once_callable
libstdc++.so.6:_ZSt16__ostream_insertIcSt11char_traitsIcEERSt13basic_ostreamIT_T0_ES6_PKS3_l
libstdc++.so.6:_ZSt17__throw_bad_allocv
libstdc++.so.6:_ZSt18_Rb_tree_decrementPSt18_Rb_tree_node_base
libstdc++.so.6:_ZSt19__throw_logic_errorPKc
libstdc++.so.6:_ZSt20__throw_length_errorPKc
libstdc++.so.6:_ZSt20__throw_system_errori
libstdc++.so.6:_ZSt24__throw_out_of_range_fmtPKcz
libstdc++.so.6:_ZSt28__throw_bad_array_new_lengthv
libstdc++.so.6:_ZSt29_Rb_tree_insert_and_rebalancebPSt18_Rb_tree_node_baseS0_RS_
libstdc++.so.6:_ZSt4cerr
libstdc++.so.6:_ZSt4endlIcSt11char_traitsIcEERSt13basic_ostreamIT_T0_ES6_
libstdc++.so.6:_ZSt5flushIcSt11char_traitsIcEERSt13basic_ostreamIT_T0_ES6_
libstdc++.so.6:_ZSt9terminatev
libstdc++.so.6:_ZStlsISt11char_traitsIcEERSt13basic_ostreamIcT_ES5_PKc
libstdc++.so.6:_ZTTNSt7__cxx1119basic_ostringstreamIcSt11char_traitsIcESaIcEEE
libstdc++.so.6:_ZTVN10__cxxabiv117__class_type_infoE
libstdc++.so.6:_ZTVN10__cxxabiv120__si_class_type_infoE
libstdc++.so.6:_ZTVN10__cxxabiv121__vmi_class_type_infoE
libstdc++.so.6:_ZTVNSt7__cxx1115basic_stringbufIcSt11char_traitsIcESaIcEEE
libstdc++.so.6:_ZTVSt15basic_streambufIcSt11char_traitsIcEE
libstdc++.so.6:_ZdlPv
libstdc++.so.6:_Znwm
libstdc++.so.6:__cxa_begin_catch
libstdc++.so.6:__cxa_end_catch
libstdc++.so.6:__cxa_guard_acquire
libstdc++.so.6:__cxa_guard_release
libstdc++.so.6:__cxa_pure_virtual
libstdc++.so.6:__cxa_rethrow
libstdc++.so.6:__cxa_thread_atexit
libstdc++.so.6:__gxx_personality_v0
libstdc++.so.6:__once_proxy
