libamdocl64.so:clBuildProgram
libamdocl64.so:clCloneKernel
libamdocl64.so:clCompileProgram
libamdocl64.so:clCreateBuffer
libamdocl64.so:clCreateCommandQueue
libamdocl64.so:clCreateCommandQueueWithProperties
libamdocl64.so:clCreateContext
libamdocl64.so:clCreateContextFromType
libamdocl64.so:clCreateFromGLBuffer
libamdocl64.so:clCreateFromGLRenderbuffer
libamdocl64.so:clCreateFromGLTexture
libamdocl64.so:clCreateFromGLTexture2D
libamdocl64.so:clCreateFromGLTexture3D
libamdocl64.so:clCreateImage
libamdocl64.so:clCreateImage2D
libamdocl64.so:clCreateImage3D
libamdocl64.so:clCreateKernel
libamdocl64.so:clCreateKernelsInProgram
libamdocl64.so:clCreatePipe
libamdocl64.so:clCreateProgramWithBinary
libamdocl64.so:clCreateProgramWithBuiltInKernels
libamdocl64.so:clCreateProgramWithIL
libamdocl64.so:clCreateProgramWithSource
libamdocl64.so:clCreateSampler
libamdocl64.so:clCreateSamplerWithProperties
libamdocl64.so:clCreateSubBuffer
libamdocl64.so:clCreateSubDevices
libamdocl64.so:clCreateUserEvent
libamdocl64.so:clEnqueueAcquireGLObjects
libamdocl64.so:clEnqueueBarrier
libamdocl64.so:clEnqueueBarrierWithWaitList
libamdocl64.so:clEnqueueCopyBuffer
libamdocl64.so:clEnqueueCopyBufferRect
libamdocl64.so:clEnqueueCopyBufferToImage
libamdocl64.so:clEnqueueCopyImage
libamdocl64.so:clEnqueueCopyImageToBuffer
libamdocl64.so:clEnqueueFillBuffer
libamdocl64.so:clEnqueueFillImage
libamdocl64.so:clEnqueueMapBuffer
libamdocl64.so:clEnqueueMapImage
libamdocl64.so:clEnqueueMarker
libamdocl64.so:clEnqueueMarkerWithWaitList
libamdocl64.so:clEnqueueMigrateMemObjects
libamdocl64.so:clEnqueueNDRangeKernel
libamdocl64.so:clEnqueueNativeKernel
libamdocl64.so:clEnqueueReadBuffer
libamdocl64.so:clEnqueueReadBufferRect
libamdocl64.so:clEnqueueReadImage
libamdocl64.so:clEnqueueReleaseGLObjects
libamdocl64.so:clEnqueueSVMFree
libamdocl64.so:clEnqueueSVMMap
libamdocl64.so:clEnqueueSVMMemFill
libamdocl64.so:clEnqueueSVMMemcpy
libamdocl64.so:clEnqueueSVMMigrateMem
libamdocl64.so:clEnqueueSVMUnmap
libamdocl64.so:clEnqueueTask
libamdocl64.so:clEnqueueUnmapMemObject
libamdocl64.so:clEnqueueWaitForEvents
libamdocl64.so:clEnqueueWriteBuffer
libamdocl64.so:clEnqueueWriteBufferRect
libamdocl64.so:clEnqueueWriteImage
libamdocl64.so:clFinish
libamdocl64.so:clFlush
libamdocl64.so:clGetCommandQueueInfo
libamdocl64.so:clGetContextInfo
libamdocl64.so:clGetDeviceAndHostTimer
libamdocl64.so:clGetDeviceIDs
libamdocl64.so:clGetDeviceInfo
libamdocl64.so:clGetEventInfo
libamdocl64.so:clGetEventProfilingInfo
libamdocl64.so:clGetExtensionFunctionAddress
libamdocl64.so:clGetExtensionFunctionAddressForPlatform
libamdocl64.so:clGetGLObjectInfo
libamdocl64.so:clGetGLTextureInfo
libamdocl64.so:clGetHostTimer
libamdocl64.so:clGetImageInfo
libamdocl64.so:clGetKernelArgInfo
libamdocl64.so:clGetKernelInfo
libamdocl64.so:clGetKernelSubGroupInfo
libamdocl64.so:clGetKernelWorkGroupInfo
libamdocl64.so:clGetMemObjectInfo
libamdocl64.so:clGetPipeInfo
libamdocl64.so:clGetPlatformIDs
libamdocl64.so:clGetPlatformInfo
libamdocl64.so:clGetProgramBuildInfo
libamdocl64.so:clGetProgramInfo
libamdocl64.so:clGetSamplerInfo
libamdocl64.so:clGetSupportedImageFormats
libamdocl64.so:clIcdGetPlatformIDsKHR
libamdocl64.so:clLinkProgram
libamdocl64.so:clReleaseCommandQueue
libamdocl64.so:clReleaseContext
libamdocl64.so:clReleaseDevice
libamdocl64.so:clReleaseEvent
libamdocl64.so:clReleaseKernel
libamdocl64.so:clReleaseMemObject
libamdocl64.so:clReleaseProgram
libamdocl64.so:clReleaseSampler
libamdocl64.so:clRetainCommandQueue
libamdocl64.so:clRetainContext
libamdocl64.so:clRetainDevice
libamdocl64.so:clRetainEvent
libamdocl64.so:clRetainKernel
libamdocl64.so:clRetainMemObject
libamdocl64.so:clRetainProgram
libamdocl64.so:clRetainSampler
libamdocl64.so:clSVMAlloc
libamdocl64.so:clSVMFree
libamdocl64.so:clSetCommandQueueProperty
libamdocl64.so:clSetDefaultDeviceCommandQueue
libamdocl64.so:clSetEventCallback
libamdocl64.so:clSetKernelArg
libamdocl64.so:clSetKernelArgSVMPointer
libamdocl64.so:clSetKernelExecInfo
libamdocl64.so:clSetMemObjectDestructorCallback
libamdocl64.so:clSetUserEventStatus
libamdocl64.so:clUnloadCompiler
libamdocl64.so:clUnloadPlatformCompiler
libamdocl64.so:clWaitForEvents
libcltrace.so.5.1:vdiAgent_OnLoad
libcltrace.so.5.1:vdiAgent_OnUnload
librocclr.so.5.1:AMD_CPU_AFFINITY
librocclr.so.5.1:AMD_DIRECT_DISPATCH
librocclr.so.5.1:AMD_GPU_FORCE_SINGLE_FP_DENORM
librocclr.so.5.1:AMD_LOG_LEVEL
librocclr.so.5.1:AMD_LOG_LEVEL_FILE
librocclr.so.5.1:AMD_LOG_MASK
librocclr.so.5.1:AMD_OCL_BUILD_OPTIONS
librocclr.so.5.1:AMD_OCL_BUILD_OPTIONS_APPEND
librocclr.so.5.1:AMD_OCL_LINK_OPTIONS
librocclr.so.5.1:AMD_OCL_LINK_OPTIONS_APPEND
librocclr.so.5.1:AMD_OCL_SC_LIB
librocclr.so.5.1:AMD_OCL_WAIT_COMMAND
librocclr.so.5.1:AMD_OPT_FLUSH
librocclr.so.5.1:AMD_SERIALIZE_COPY
librocclr.so.5.1:AMD_SERIALIZE_KERNEL
librocclr.so.5.1:AMD_THREAD_TRACE_ENABLE
librocclr.so.5.1:CL_KHR_FP64
librocclr.so.5.1:CQ_THREAD_STACK_SIZE
librocclr.so.5.1:CUDA_VISIBLE_DEVICES
librocclr.so.5.1:DISABLE_DEFERRED_ALLOC
librocclr.so.5.1:GPU_ADD_HBCC_SIZE
librocclr.so.5.1:GPU_ANALYZE_HANG
librocclr.so.5.1:GPU_BLIT_ENGINE_TYPE
librocclr.so.5.1:GPU_DEVICE_ORDINAL
librocclr.so.5.1:GPU_DUMP_BLIT_KERNELS
librocclr.so.5.1:GPU_DUMP_CODE_OBJECT
librocclr.so.5.1:GPU_ENABLE_COOP_GROUPS
librocclr.so.5.1:GPU_ENABLE_HW_P2P
librocclr.so.5.1:GPU_ENABLE_LARGE_ALLOCATION
librocclr.so.5.1:GPU_ENABLE_LC
librocclr.so.5.1:GPU_ENABLE_PAL
librocclr.so.5.1:GPU_ENABLE_WAVE32_MODE
librocclr.so.5.1:GPU_ENABLE_WGP_MODE
librocclr.so.5.1:GPU_FLUSH_ON_EXECUTION
librocclr.so.5.1:GPU_FORCE_64BIT_PTR
librocclr.so.5.1:GPU_FORCE_BLIT_COPY_SIZE
librocclr.so.5.1:GPU_FORCE_OCL20_32BIT
librocclr.so.5.1:GPU_IFH_MODE
librocclr.so.5.1:GPU_IMAGE_BUFFER_WAR
librocclr.so.5.1:GPU_IMAGE_DMA
librocclr.so.5.1:GPU_MAX_COMMAND_BUFFERS
librocclr.so.5.1:GPU_MAX_COMMAND_QUEUES
librocclr.so.5.1:GPU_MAX_HEAP_SIZE
librocclr.so.5.1:GPU_MAX_HW_QUEUES
librocclr.so.5.1:GPU_MAX_REMOTE_MEM_SIZE
librocclr.so.5.1:GPU_MAX_SUBALLOC_SIZE
librocclr.so.5.1:GPU_MAX_USWC_ALLOC_SIZE
librocclr.so.5.1:GPU_MAX_WORKGROUP_SIZE
librocclr.so.5.1:GPU_MAX_WORKGROUP_SIZE_2D_X
librocclr.so.5.1:GPU_MAX_WORKGROUP_SIZE_2D_Y
librocclr.so.5.1:GPU_MAX_WORKGROUP_SIZE_3D_X
librocclr.so.5.1:GPU_MAX_WORKGROUP_SIZE_3D_Y
librocclr.so.5.1:GPU_MAX_WORKGROUP_SIZE_3D_Z
librocclr.so.5.1:GPU_MIPMAP
librocclr.so.5.1:GPU_NUM_COMPUTE_RINGS
librocclr.so.5.1:GPU_NUM_MEM_DEPENDENCY
librocclr.so.5.1:GPU_PINNED_MIN_XFER_SIZE
librocclr.so.5.1:GPU_PINNED_XFER_SIZE
librocclr.so.5.1:GPU_PRINT_CHILD_KERNEL
librocclr.so.5.1:GPU_RAW_TIMESTAMP
librocclr.so.5.1:GPU_RESOURCE_CACHE_SIZE
librocclr.so.5.1:GPU_SELECT_COMPUTE_RINGS_ID
librocclr.so.5.1:GPU_SINGLE_ALLOC_PERCENT
librocclr.so.5.1:GPU_STAGING_BUFFER_SIZE
librocclr.so.5.1:GPU_STREAMOPS_CP_WAIT
librocclr.so.5.1:GPU_USE_DEVICE_QUEUE
librocclr.so.5.1:GPU_USE_SINGLE_SCRATCH
librocclr.so.5.1:GPU_USE_SYNC_OBJECTS
librocclr.so.5.1:GPU_WAVES_PER_SIMD
librocclr.so.5.1:GPU_WAVE_LIMIT_ENABLE
librocclr.so.5.1:GPU_WORKLOAD_SPLIT
librocclr.so.5.1:GPU_XFER_BUFFER_SIZE
librocclr.so.5.1:HIP_FORCE_QUEUE_PROFILING
librocclr.so.5.1:HIP_HIDDEN_FREE_MEM
librocclr.so.5.1:HIP_HOST_COHERENT
librocclr.so.5.1:HIP_VISIBLE_DEVICES
librocclr.so.5.1:HSA_ENABLE_COARSE_GRAIN_SVM
librocclr.so.5.1:HSA_KERNARG_POOL_SIZE
librocclr.so.5.1:HSA_LOCAL_MEMORY_ENABLE
librocclr.so.5.1:OCL_CODE_CACHE_ENABLE
librocclr.so.5.1:OCL_CODE_CACHE_RESET
librocclr.so.5.1:OCL_SET_SVM_SIZE
librocclr.so.5.1:OCL_STUB_PROGRAMS
librocclr.so.5.1:OPENCL_VERSION
librocclr.so.5.1:PAL_ALWAYS_RESIDENT
librocclr.so.5.1:PAL_EMBED_KERNEL_MD
librocclr.so.5.1:PAL_FORCE_ASIC_REVISION
librocclr.so.5.1:PAL_MALL_POLICY
librocclr.so.5.1:PAL_PREPINNED_MEMORY_SIZE
librocclr.so.5.1:PAL_RGP_DISP_COUNT
librocclr.so.5.1:REMOTE_ALLOC
librocclr.so.5.1:ROC_ACTIVE_WAIT_TIMEOUT
librocclr.so.5.1:ROC_AQL_QUEUE_SIZE
librocclr.so.5.1:ROC_CPU_WAIT_FOR_SIGNAL
librocclr.so.5.1:ROC_ENABLE_LARGE_BAR
librocclr.so.5.1:ROC_ENABLE_PRE_VEGA
librocclr.so.5.1:ROC_GLOBAL_CU_MASK
librocclr.so.5.1:ROC_HMM_FLAGS
librocclr.so.5.1:ROC_P2P_SDMA_SIZE
librocclr.so.5.1:ROC_SKIP_COPY_SYNC
librocclr.so.5.1:ROC_SKIP_KERNEL_ARG_COPY
librocclr.so.5.1:ROC_SYSTEM_SCOPE_SIGNAL
librocclr.so.5.1:ROC_USE_FGS_KERNARG
librocclr.so.5.1:_Z12handlePrintfPmPKmm
librocclr.so.5.1:_Z15enableHostcallsRKN3amd6DeviceEPvj
librocclr.so.5.1:_Z16disableHostcallsPv
librocclr.so.5.1:_Z19PerfCounterCallback34hsa_ven_amd_aqlprofile_info_type_tP34hsa_ven_amd_aqlprofile_info_data_tPv
librocclr.so.5.1:_Z19rocCreateAppProfilev
librocclr.so.5.1:_Z21getHostcallBufferSizej
librocclr.so.5.1:_Z23getOclCommandKindStringj
librocclr.so.5.1:_Z26getHostcallBufferAlignmentv
librocclr.so.5.1:_Z28SearchProfileOfAnApplicationPKwPPPv
librocclr.so.5.1:_ZN13activity_prof12ActivityProf16globe_record_id_E
librocclr.so.5.1:_ZN13activity_prof14CallbacksTable6table_E
librocclr.so.5.1:_ZN14HostcallBuffer10initializeEj
librocclr.so.5.1:_ZN14HostcallBuffer14processPacketsER14MessageHandler
librocclr.so.5.1:_ZN14MessageHandler10getMessageEm
librocclr.so.5.1:_ZN14MessageHandler10newMessageEv
librocclr.so.5.1:_ZN14MessageHandler13handlePayloadEjPm
librocclr.so.5.1:_ZN14MessageHandler14discardMessageEP7Message
librocclr.so.5.1:_ZN14MessageHandlerD1Ev
librocclr.so.5.1:_ZN14MessageHandlerD2Ev
librocclr.so.5.1:_ZN16HostcallListener10initializeERKN3amd6DeviceE
librocclr.so.5.1:_ZN16HostcallListener12removeBufferEP14HostcallBuffer
librocclr.so.5.1:_ZN16HostcallListener14consumePacketsEv
librocclr.so.5.1:_ZN16HostcallListener9addBufferEP14HostcallBuffer
librocclr.so.5.1:_ZN16HostcallListener9terminateEv
librocclr.so.5.1:_ZN3amd10AppProfile23ParseApplicationProfileEv
librocclr.so.5.1:_ZN3amd10AppProfile4initEv
librocclr.so.5.1:_ZN3amd10AppProfileC1Ev
librocclr.so.5.1:_ZN3amd10AppProfileC2Ev
librocclr.so.5.1:_ZN3amd10AppProfileD0Ev
librocclr.so.5.1:_ZN3amd10AppProfileD1Ev
librocclr.so.5.1:_ZN3amd10AppProfileD2Ev
librocclr.so.5.1:_ZN3amd10BufferRect6createEPKmS2_mm
librocclr.so.5.1:_ZN3amd10HeapObjectdlEPv
librocclr.so.5.1:_ZN3amd10HeapObjectnwEm
librocclr.so.5.1:_ZN3amd10HostThreadC1Ev
librocclr.so.5.1:_ZN3amd10HostThreadC2Ev
librocclr.so.5.1:_ZN3amd10log_printfENS_8LogLevelEPKciPmS2_z
librocclr.so.5.1:_ZN3amd10log_printfENS_8LogLevelEPKciS2_z
librocclr.so.5.1:_ZN3amd11DeviceQueue6createEv
librocclr.so.5.1:_ZN3amd11DeviceQueueD0Ev
librocclr.so.5.1:_ZN3amd11DeviceQueueD1Ev
librocclr.so.5.1:_ZN3amd11DeviceQueueD2Ev
librocclr.so.5.1:_ZN3amd12report_fatalEPKciS1_
librocclr.so.5.1:_ZN3amd13AlignedMemory10deallocateEPv
librocclr.so.5.1:_ZN3amd13AlignedMemory8allocateEmm
librocclr.so.5.1:_ZN3amd13GuardedMemory10deallocateEPv
librocclr.so.5.1:_ZN3amd13GuardedMemory8allocateEmmm
librocclr.so.5.1:_ZN3amd14HwDebugManager11installTrapE20cl_dbg_trap_type_amdPNS_6MemoryES3_
librocclr.so.5.1:_ZN3amd14HwDebugManager12setAclBinaryEPv
librocclr.so.5.1:_ZN3amd14HwDebugManager14setScratchRingEPhj
librocclr.so.5.1:_ZN3amd14HwDebugManager17allocParamMemListEj
librocclr.so.5.1:_ZN3amd14HwDebugManager17setKernelCodeInfoEPhj
librocclr.so.5.1:_ZN3amd14HwDebugManager18setExceptionPolicyEPv
librocclr.so.5.1:_ZN3amd14HwDebugManager20assignKernelParamMemEjPNS_6MemoryE
librocclr.so.5.1:_ZN3amd14HwDebugManager20setCallBackArgumentsEPvS1_
librocclr.so.5.1:_ZN3amd14HwDebugManager20setCallBackFunctionsEPFPvP13_cl_device_idS1_PKvS1_S1_EPFS1_S3_mS1_E
librocclr.so.5.1:_ZN3amd14HwDebugManager22setKernelExecutionModeEPv
librocclr.so.5.1:_ZN3amd14HwDebugManagerC2EPNS_6DeviceE
librocclr.so.5.1:_ZN3amd14HwDebugManagerD0Ev
librocclr.so.5.1:_ZN3amd14HwDebugManagerD1Ev
librocclr.so.5.1:_ZN3amd14HwDebugManagerD2Ev
librocclr.so.5.1:_ZN3amd14IS_PROFILER_ONE
librocclr.so.5.1:_ZN3amd14report_warningEPKc
librocclr.so.5.1:_ZN3amd15KernelSignatureC1ERKSt6vectorINS_25KernelParameterDescriptorESaIS2_EERKNSt7__cxx1112basic_stringIcSt11char_traitsIcESaIcEEEjj
librocclr.so.5.1:_ZN3amd15KernelSignatureC2ERKSt6vectorINS_25KernelParameterDescriptorESaIS2_EERKNSt7__cxx1112basic_stringIcSt11char_traitsIcESaIcEEEjj
librocclr.so.5.1:_ZN3amd15NativeFnCommand6invokeEv
librocclr.so.5.1:_ZN3amd15NativeFnCommandC1ERNS_9HostQueueERKSt6vectorIPNS_5EventESaIS5_EEPFvPvEPKvmmPKP7_cl_memPSE_
librocclr.so.5.1:_ZN3amd15NativeFnCommandC2ERNS_9HostQueueERKSt6vectorIPNS_5EventESaIS5_EEPFvPvEPKvmmPKP7_cl_memPSE_
librocclr.so.5.1:_ZN3amd15log_timestampedENS_8LogLevelEPKciS2_
librocclr.so.5.1:_ZN3amd16KernelParameters3setEmmPKvb
librocclr.so.5.1:_ZN3amd16KernelParameters5checkEv
librocclr.so.5.1:_ZN3amd16KernelParameters7captureERN6device13VirtualDeviceEmPi
librocclr.so.5.1:_ZN3amd17ExtObjectsCommand14validateMemoryEv
librocclr.so.5.1:_ZN3amd17runtime_tear_downE
librocclr.so.5.1:_ZN3amd18UnmapMemoryCommand16releaseResourcesEv
librocclr.so.5.1:_ZN3amd18guessTlsSizeThreadEPv
librocclr.so.5.1:_ZN3amd19HostMemoryReference14allocateMemoryEmRKNS_7ContextE
librocclr.so.5.1:_ZN3amd19HostMemoryReference16deallocateMemoryERKNS_7ContextE
librocclr.so.5.1:_ZN3amd19OneMemoryArgCommand14validateMemoryEv
librocclr.so.5.1:_ZN3amd19OneMemoryArgCommand18validatePeerMemoryEv
librocclr.so.5.1:_ZN3amd20CopyMemoryP2PCommand14validateMemoryEv
librocclr.so.5.1:_ZN3amd20NDRangeKernelCommand16releaseResourcesEv
librocclr.so.5.1:_ZN3amd20NDRangeKernelCommand18captureAndValidateEv
librocclr.so.5.1:_ZN3amd20NDRangeKernelCommandC1ERNS_9HostQueueERKSt6vectorIPNS_5EventESaIS5_EERNS_6KernelERKNS_16NDRangeContainerEjjjjmmjb
librocclr.so.5.1:_ZN3amd20NDRangeKernelCommandC2ERNS_9HostQueueERKSt6vectorIPNS_5EventESaIS5_EERNS_6KernelERKNS_16NDRangeContainerEjjjjmmjb
librocclr.so.5.1:_ZN3amd20TwoMemoryArgsCommand14validateMemoryEv
librocclr.so.5.1:_ZN3amd20TwoMemoryArgsCommand18validatePeerMemoryEv
librocclr.so.5.1:_ZN3amd22ReferenceCountedObject6retainEv
librocclr.so.5.1:_ZN3amd22ReferenceCountedObject7releaseEv
librocclr.so.5.1:_ZN3amd23SvmPrefetchAsyncCommand14validateMemoryEv
librocclr.so.5.1:_ZN3amd24AcquireExtObjectsCommand17processGLResourceEPN6device6MemoryE
librocclr.so.5.1:_ZN3amd24MigrateMemObjectsCommand14validateMemoryEv
librocclr.so.5.1:_ZN3amd24ReleaseExtObjectsCommand17processGLResourceEPN6device6MemoryE
librocclr.so.5.1:_ZN3amd25TransferBufferFileCommand14validateMemoryEv
librocclr.so.5.1:_ZN3amd25TransferBufferFileCommand16releaseResourcesEv
librocclr.so.5.1:_ZN3amd25TransferBufferFileCommand6submitERN6device13VirtualDeviceE
librocclr.so.5.1:_ZN3amd26MakeBuffersResidentCommand14validateMemoryEv
librocclr.so.5.1:_ZN3amd28ThreadTraceMemObjectsCommand14validateMemoryEv
librocclr.so.5.1:_ZN3amd2Os10createPathERKNSt7__cxx1112basic_stringIcSt11char_traitsIcESaIcEEE
librocclr.so.5.1:_ZN3amd2Os10fastMemcpyEPvPKvm
librocclr.so.5.1:_ZN3amd2Os10pathExistsERKNSt7__cxx1112basic_stringIcSt11char_traitsIcESaIcEEE
librocclr.so.5.1:_ZN3amd2Os10removePathERKNSt7__cxx1112basic_stringIcSt11char_traitsIcESaIcEEE
librocclr.so.5.1:_ZN3amd2Os10systemCallERKNSt7__cxx1112basic_stringIcSt11char_traitsIcESaIcEEE
librocclr.so.5.1:_ZN3amd2Os11alignedFreeEPv
librocclr.so.5.1:_ZN3amd2Os11getTempPathB5cxx11Ev
librocclr.so.5.1:_ZN3amd2Os11loadLibraryEPKc
librocclr.so.5.1:_ZN3amd2Os12commitMemoryEPvmNS0_7MemProtE
librocclr.so.5.1:_ZN3amd2Os12loadLibrary_EPKc
librocclr.so.5.1:_ZN3amd2Os13GetFileHandleEPKcPiPm
librocclr.so.5.1:_ZN3amd2Os13MemoryMapFileEPKcPPKvPm
librocclr.so.5.1:_ZN3amd2Os13alignedMallocEmm
librocclr.so.5.1:_ZN3amd2Os13fileSeparatorEv
librocclr.so.5.1:_ZN3amd2Os13isThreadAliveERKNS_6ThreadE
librocclr.so.5.1:_ZN3amd2Os13libraryPrefixEv
librocclr.so.5.1:_ZN3amd2Os13pathSeparatorEv
librocclr.so.5.1:_ZN3amd2Os13protectMemoryEPvmNS0_7MemProtE
librocclr.so.5.1:_ZN3amd2Os13releaseMemoryEPvm
librocclr.so.5.1:_ZN3amd2Os13reserveMemoryEPhmmNS0_7MemProtE
librocclr.so.5.1:_ZN3amd2Os13unloadLibraryEPv
librocclr.so.5.1:_ZN3amd2Os14createOsThreadEPNS_6ThreadE
librocclr.so.5.1:_ZN3amd2Os14getEnvironmentERKNSt7__cxx1112basic_stringIcSt11char_traitsIcESaIcEEE
librocclr.so.5.1:_ZN3amd2Os14uncommitMemoryEPvm
librocclr.so.5.1:_ZN3amd2Os15CloseFileHandleEi
librocclr.so.5.1:_ZN3amd2Os15MemoryUnmapFileEPKvm
librocclr.so.5.1:_ZN3amd2Os15getTempFileNameB5cxx11Ev
librocclr.so.5.1:_ZN3amd2Os15objectExtensionEv
librocclr.so.5.1:_ZN3amd2Os15processorCount_E
librocclr.so.5.1:_ZN3amd2Os15touchStackPagesEPhS1_
librocclr.so.5.1:_ZN3amd2Os16GetURIFromMemoryEPKvmRNSt7__cxx1112basic_stringIcSt11char_traitsIcESaIcEEE
librocclr.so.5.1:_ZN3amd2Os16currentStackInfoEPPhPm
librocclr.so.5.1:_ZN3amd2Os16libraryExtensionEv
librocclr.so.5.1:_ZN3amd2Os17MemoryMapFileDescEimmPPKv
librocclr.so.5.1:_ZN3amd2Os17setThreadAffinityEPKvRKNS0_18ThreadAffinityMaskE
librocclr.so.5.1:_ZN3amd2Os17setThreadAffinityEPKvj
librocclr.so.5.1:_ZN3amd2Os18getPhysicalMemSizeEv
librocclr.so.5.1:_ZN3amd2Os18offsetToEpochNanosEv
librocclr.so.5.1:_ZN3amd2Os18setCurrentStackPtrEPh
librocclr.so.5.1:_ZN3amd2Os20installSigfpeHandlerEv
librocclr.so.5.1:_ZN3amd2Os20setCurrentThreadNameEPKc
librocclr.so.5.1:_ZN3amd2Os20setPreferredNumaNodeEj
librocclr.so.5.1:_ZN3amd2Os20timerResolutionNanosEv
librocclr.so.5.1:_ZN3amd2Os21getAppPathAndFileNameERNSt7__cxx1112basic_stringIcSt11char_traitsIcESaIcEEES7_
librocclr.so.5.1:_ZN3amd2Os22MemoryMapFileTruncatedEPKcPPKvm
librocclr.so.5.1:_ZN3amd2Os22uninstallSigfpeHandlerEv
librocclr.so.5.1:_ZN3amd2Os23hostTotalPhysicalMemoryEv
librocclr.so.5.1:_ZN3amd2Os29setThreadAffinityToMainThreadEv
librocclr.so.5.1:_ZN3amd2Os4initEv
librocclr.so.5.1:_ZN3amd2Os5cpuidEPii
librocclr.so.5.1:_ZN3amd2Os5sleepEl
librocclr.so.5.1:_ZN3amd2Os5yieldEv
librocclr.so.5.1:_ZN3amd2Os6printfEPKcz
librocclr.so.5.1:_ZN3amd2Os6unlinkERKNSt7__cxx1112basic_stringIcSt11char_traitsIcESaIcEEE
librocclr.so.5.1:_ZN3amd2Os6xgetbvEj
librocclr.so.5.1:_ZN3amd2Os8skipIDIVERPh
librocclr.so.5.1:_ZN3amd2Os8tearDownEv
librocclr.so.5.1:_ZN3amd2Os9getSymbolEPvPKc
librocclr.so.5.1:_ZN3amd2Os9pageSize_E
librocclr.so.5.1:_ZN3amd2Os9spinPauseEv
librocclr.so.5.1:_ZN3amd2Os9timeNanosEv
librocclr.so.5.1:_ZN3amd3Elf10addSectionENS0_11ElfSectionsEPKvm
librocclr.so.5.1:_ZN3amd3Elf10getElfSizeEPKv
librocclr.so.5.1:_ZN3amd3Elf10isElfMagicEPKc
librocclr.so.5.1:_ZN3amd3Elf10newSectionENS0_11ElfSectionsEPKcm
librocclr.so.5.1:_ZN3amd3Elf11isCALTargetEPKca
librocclr.so.5.1:_ZN3amd3Elf12allocAndCopyEPvm
librocclr.so.5.1:_ZN3amd3Elf13createElfDataERPNS_5ELFIO7sectionENS0_11ElfSectionsEPKcm
librocclr.so.5.1:_ZN3amd3Elf14addSectionDataERmNS0_11ElfSectionsEPKvm
librocclr.so.5.1:_ZN3amd3Elf14generateUUIDV4B5cxx11Ev
librocclr.so.5.1:_ZN3amd3Elf14getShstrtabNdxERjPKc
librocclr.so.5.1:_ZN3amd3Elf16elfMemoryReleaseEv
librocclr.so.5.1:_ZN3amd3Elf4InitEv
librocclr.so.5.1:_ZN3amd3Elf5ClearEv
librocclr.so.5.1:_ZN3amd3Elf6callocEm
librocclr.so.5.1:_ZN3amd3Elf7InitElfEv
librocclr.so.5.1:_ZN3amd3Elf7addNoteEPKcS2_m
librocclr.so.5.1:_ZN3amd3Elf7getNoteEPKcPPcPm
librocclr.so.5.1:_ZN3amd3Elf7setTypeEt
librocclr.so.5.1:_ZN3amd3Elf7xmallocEm
librocclr.so.5.1:_ZN3amd3Elf8setFlagsEj
librocclr.so.5.1:_ZN3amd3Elf9addSymbolENS0_11ElfSectionsEPKcPKvm
librocclr.so.5.1:_ZN3amd3Elf9dumpImageEPPcPm
librocclr.so.5.1:_ZN3amd3Elf9setTargetEtNS0_11ElfPlatformE
librocclr.so.5.1:_ZN3amd3ElfC1EhPKcmS2_NS0_6ElfCmdE
librocclr.so.5.1:_ZN3amd3ElfC2EhPKcmS2_NS0_6ElfCmdE
librocclr.so.5.1:_ZN3amd3ElfD1Ev
librocclr.so.5.1:_ZN3amd3ElfD2Ev
librocclr.so.5.1:_ZN3amd3Isa12isCompatibleERKS0_S2_
librocclr.so.5.1:_ZN3amd3Isa13supportedIsasEv
librocclr.so.5.1:_ZN3amd3Isa3endEv
librocclr.so.5.1:_ZN3amd3Isa5beginEv
librocclr.so.5.1:_ZN3amd3Isa7findIsaEPKc
librocclr.so.5.1:_ZN3amd3Isa7findIsaEjjjNS0_7FeatureES1_
librocclr.so.5.1:_ZN3amd4Flag4initEv
librocclr.so.5.1:_ZN3amd4Flag6flags_E
librocclr.so.5.1:_ZN3amd4Flag7envstr_E
librocclr.so.5.1:_ZN3amd4Flag8setValueEPKc
librocclr.so.5.1:_ZN3amd4Flag8tearDownEv
librocclr.so.5.1:_ZN3amd4Pipe16initDeviceMemoryEv
librocclr.so.5.1:_ZN3amd5Agent12entryPoints_E
librocclr.so.5.1:_ZN3amd5Agent12setCallbacksEPK20_vdi_agent_callbacksm
librocclr.so.5.1:_ZN3amd5Agent13postEventFreeEP9_cl_event
librocclr.so.5.1:_ZN3amd5Agent14postKernelFreeEP10_cl_kernel
librocclr.so.5.1:_ZN3amd5Agent15getCapabilitiesEP23_vdi_agent_capabilities
librocclr.so.5.1:_ZN3amd5Agent15postContextFreeEP11_cl_context
librocclr.so.5.1:_ZN3amd5Agent15postEventCreateEP9_cl_eventj
librocclr.so.5.1:_ZN3amd5Agent15postProgramFreeEP11_cl_program
librocclr.so.5.1:_ZN3amd5Agent15postSamplerFreeEP11_cl_sampler
librocclr.so.5.1:_ZN3amd5Agent15setCapabilitiesEPK23_vdi_agent_capabilitiesb
librocclr.so.5.1:_ZN3amd5Agent16postKernelCreateEP10_cl_kernel
librocclr.so.5.1:_ZN3amd5Agent16postKernelSetArgEP10_cl_kernelimPKv
librocclr.so.5.1:_ZN3amd5Agent16postProgramBuildEP11_cl_program
librocclr.so.5.1:_ZN3amd5Agent17capabilitiesLock_E
librocclr.so.5.1:_ZN3amd5Agent17postContextCreateEP11_cl_context
librocclr.so.5.1:_ZN3amd5Agent17postMemObjectFreeEP7_cl_mem
librocclr.so.5.1:_ZN3amd5Agent17postProgramCreateEP11_cl_program
librocclr.so.5.1:_ZN3amd5Agent17postSamplerCreateEP11_cl_sampler
librocclr.so.5.1:_ZN3amd5Agent19postMemObjectCreateEP7_cl_mem
librocclr.so.5.1:_ZN3amd5Agent20enabledCapabilities_E
librocclr.so.5.1:_ZN3amd5Agent20postCommandQueueFreeEP17_cl_command_queue
librocclr.so.5.1:_ZN3amd5Agent21postMemObjectAcquiredEP7_cl_memP13_cl_device_idl
librocclr.so.5.1:_ZN3amd5Agent22postCommandQueueCreateEP17_cl_command_queue
librocclr.so.5.1:_ZN3amd5Agent22postEventStatusChangedEP9_cl_eventil
librocclr.so.5.1:_ZN3amd5Agent22potentialCapabilities_E
librocclr.so.5.1:_ZN3amd5Agent4initEv
librocclr.so.5.1:_ZN3amd5Agent5list_E
librocclr.so.5.1:_ZN3amd5Agent8tearDownEv
librocclr.so.5.1:_ZN3amd5AgentC1EPKc
librocclr.so.5.1:_ZN3amd5AgentC2EPKc
librocclr.so.5.1:_ZN3amd5AgentD1Ev
librocclr.so.5.1:_ZN3amd5AgentD2Ev
librocclr.so.5.1:_ZN3amd5Comgr11initializedE
librocclr.so.5.1:_ZN3amd5Comgr4cep_E
librocclr.so.5.1:_ZN3amd5Comgr7LoadLibEv
librocclr.so.5.1:_ZN3amd5Comgr9is_ready_E
librocclr.so.5.1:_ZN3amd5Event11resetStatusEi
librocclr.so.5.1:_ZN3amd5Event11setCallbackEiPFvP9_cl_eventiPvES3_
librocclr.so.5.1:_ZN3amd5Event12nullWaitListE
librocclr.so.5.1:_ZN3amd5Event14notifyCmdQueueEb
librocclr.so.5.1:_ZN3amd5Event15awaitCompletionEv
librocclr.so.5.1:_ZN3amd5Event19recordProfilingInfoEim
librocclr.so.5.1:_ZN3amd5Event9setStatusEim
librocclr.so.5.1:_ZN3amd5EventC2ERNS_9HostQueueE
librocclr.so.5.1:_ZN3amd5EventC2Ev
librocclr.so.5.1:_ZN3amd5EventD0Ev
librocclr.so.5.1:_ZN3amd5EventD1Ev
librocclr.so.5.1:_ZN3amd5EventD2Ev
librocclr.so.5.1:_ZN3amd5Image10createViewERKNS_7ContextERKNS0_6FormatEPN6device13VirtualDeviceEjm
librocclr.so.5.1:_ZN3amd5Image13initDimensionEv
librocclr.so.5.1:_ZN3amd5Image16initDeviceMemoryEv
librocclr.so.5.1:_ZN3amd5Image16supportedFormatsE
librocclr.so.5.1:_ZN3amd5Image18copyToBackingStoreEPv
librocclr.so.5.1:_ZN3amd5Image18supportedFormatsRAE
librocclr.so.5.1:_ZN3amd5Image18validateDimensionsERKSt6vectorIPNS_6DeviceESaIS3_EEjmmmm
librocclr.so.5.1:_ZN3amd5Image19getSupportedFormatsERKNS_7ContextEjjP16_cl_image_formatm
librocclr.so.5.1:_ZN3amd5Image19numSupportedFormatsERKNS_7ContextEjm
librocclr.so.5.1:_ZN3amd5Image28supportedDepthStencilFormatsE
librocclr.so.5.1:_ZN3amd5ImageC1ERKNS0_6FormatERS0_jm
librocclr.so.5.1:_ZN3amd5ImageC1ERNS_6BufferEjmRKNS0_6FormatEmmmmm
librocclr.so.5.1:_ZN3amd5ImageC1ERNS_7ContextEjmRKNS0_6FormatEmmmmmj
librocclr.so.5.1:_ZN3amd5ImageC2ERKNS0_6FormatERS0_jm
librocclr.so.5.1:_ZN3amd5ImageC2ERNS_6BufferEjmRKNS0_6FormatEmmmmm
librocclr.so.5.1:_ZN3amd5ImageC2ERNS_7ContextEjmRKNS0_6FormatEmmmmmj
librocclr.so.5.1:_ZN3amd5epochE
librocclr.so.5.1:_ZN3amd6Buffer16initDeviceMemoryEv
librocclr.so.5.1:_ZN3amd6Buffer6createEPvbbb
librocclr.so.5.1:_ZN3amd6Device10getDevicesEmb
librocclr.so.5.1:_ZN3amd6Device10numDevicesEmb
librocclr.so.5.1:_ZN3amd6Device10p2p_stage_E
librocclr.so.5.1:_ZN3amd6Device11BlitProgram6createEPS0_RKNSt7__cxx1112basic_stringIcSt11char_traitsIcESaIcEEESA_
librocclr.so.5.1:_ZN3amd6Device11BlitProgramD1Ev
librocclr.so.5.1:_ZN3amd6Device11BlitProgramD2Ev
librocclr.so.5.1:_ZN3amd6Device11appProfile_E
librocclr.so.5.1:_ZN3amd6Device12getDeviceIDsEmjPP13_cl_device_idPjb
librocclr.so.5.1:_ZN3amd6Device13ValidateComgrEv
librocclr.so.5.1:_ZN3amd6Device13ValidateHsailEv
librocclr.so.5.1:_ZN3amd6Device14IsTypeMatchingEmb
librocclr.so.5.1:_ZN3amd6Device14p2p_stage_ops_E
librocclr.so.5.1:_ZN3amd6Device14registerDeviceEv
librocclr.so.5.1:_ZN3amd6Device18getExtensionStringEv
librocclr.so.5.1:_ZN3amd6Device4initEv
librocclr.so.5.1:_ZN3amd6Device6createERKNS_3IsaE
librocclr.so.5.1:_ZN3amd6Device8devices_E
librocclr.so.5.1:_ZN3amd6Device8glb_ctx_E
librocclr.so.5.1:_ZN3amd6Device8tearDownEv
librocclr.so.5.1:_ZN3amd6DeviceC2Ev
librocclr.so.5.1:_ZN3amd6DeviceD0Ev
librocclr.so.5.1:_ZN3amd6DeviceD1Ev
librocclr.so.5.1:_ZN3amd6DeviceD2Ev
librocclr.so.5.1:_ZN3amd6IS_HIPE
librocclr.so.5.1:_ZN3amd6KernelC1ERKS0_
librocclr.so.5.1:_ZN3amd6KernelC1ERNS_7ProgramERKNS_6SymbolERKNSt7__cxx1112basic_stringIcSt11char_traitsIcESaIcEEE
librocclr.so.5.1:_ZN3amd6KernelC2ERKS0_
librocclr.so.5.1:_ZN3amd6KernelC2ERNS_7ProgramERKNS_6SymbolERKNSt7__cxx1112basic_stringIcSt11char_traitsIcESaIcEEE
librocclr.so.5.1:_ZN3amd6KernelD0Ev
librocclr.so.5.1:_ZN3amd6KernelD1Ev
librocclr.so.5.1:_ZN3amd6KernelD2Ev
librocclr.so.5.1:_ZN3amd6Memory11signalWriteEPKNS_6DeviceE
librocclr.so.5.1:_ZN3amd6Memory12addSubBufferEPS0_
librocclr.so.5.1:_ZN3amd6Memory14cacheWriteBackEv
librocclr.so.5.1:_ZN3amd6Memory15addDeviceMemoryEPKNS_6DeviceE
librocclr.so.5.1:_ZN3amd6Memory15allocHostMemoryEPvbb
librocclr.so.5.1:_ZN3amd6Memory15commitSvmMemoryEv
librocclr.so.5.1:_ZN3amd6Memory15getDeviceMemoryERKNS_6DeviceEb
librocclr.so.5.1:_ZN3amd6Memory15removeSubBufferEPS0_
librocclr.so.5.1:_ZN3amd6Memory16initDeviceMemoryEv
librocclr.so.5.1:_ZN3amd6Memory17NumDevicesWithP2PEv
librocclr.so.5.1:_ZN3amd6Memory17uncommitSvmMemoryEv
librocclr.so.5.1:_ZN3amd6Memory18copyToBackingStoreEPv
librocclr.so.5.1:_ZN3amd6Memory19replaceDeviceMemoryEPKNS_6DeviceEPN6device6MemoryE
librocclr.so.5.1:_ZN3amd6Memory20resetAllocationStateEv
librocclr.so.5.1:_ZN3amd6Memory21setDestructorCallbackEPFvP7_cl_memPvES3_
librocclr.so.5.1:_ZN3amd6Memory6createEPvbbb
librocclr.so.5.1:_ZN3amd6MemoryC2ERNS_7ContextEjmmPv
librocclr.so.5.1:_ZN3amd6MemoryC2ERS0_mmmj
librocclr.so.5.1:_ZN3amd6MemoryD0Ev
librocclr.so.5.1:_ZN3amd6MemoryD1Ev
librocclr.so.5.1:_ZN3amd6MemoryD2Ev
librocclr.so.5.1:_ZN3amd6MemorydlEPv
librocclr.so.5.1:_ZN3amd6MemorydlEPvRKNS_7ContextE
librocclr.so.5.1:_ZN3amd6MemorynwEmRKNS_7ContextE
librocclr.so.5.1:_ZN3amd6Symbol15setDeviceKernelERKNS_6DeviceEPKN6device6KernelE
librocclr.so.5.1:_ZN3amd6Thread10setCurrentEv
librocclr.so.5.1:_ZN3amd6Thread13registerStackEPhS1_
librocclr.so.5.1:_ZN3amd6Thread4initEv
librocclr.so.5.1:_ZN3amd6Thread4mainEv
librocclr.so.5.1:_ZN3amd6Thread5entryEPS0_
librocclr.so.5.1:_ZN3amd6Thread5startEPv
librocclr.so.5.1:_ZN3amd6Thread6createEv
librocclr.so.5.1:_ZN3amd6Thread6resumeEv
librocclr.so.5.1:_ZN3amd6Thread8tearDownEv
librocclr.so.5.1:_ZN3amd6ThreadC2ERKNSt7__cxx1112basic_stringIcSt11char_traitsIcESaIcEEEmb
librocclr.so.5.1:_ZN3amd6ThreadD0Ev
librocclr.so.5.1:_ZN3amd6ThreadD1Ev
librocclr.so.5.1:_ZN3amd6ThreadD2Ev
librocclr.so.5.1:_ZN3amd6option15getOptDescTableEv
librocclr.so.5.1:_ZN3amd6option15parseAllOptionsERNSt7__cxx1112basic_stringIcSt11char_traitsIcESaIcEEERNS0_7OptionsEbb
librocclr.so.5.1:_ZN3amd6option4initEv
librocclr.so.5.1:_ZN3amd6option7Options13postParseInitEv
librocclr.so.5.1:_ZN3amd6option7Options15getDumpFileNameERKNSt7__cxx1112basic_stringIcSt11char_traitsIcESaIcEEE
librocclr.so.5.1:_ZN3amd6option7Options15setDumpFileNameEPKc
librocclr.so.5.1:_ZN3amd6option7Options15setPerBuildInfoEPKcib
librocclr.so.5.1:_ZN3amd6option7Options20setOptionVariablesAsERKS1_
librocclr.so.5.1:_ZN3amd6option7Options22getStringFromStringVecERSt6vectorINSt7__cxx1112basic_stringIcSt11char_traitsIcESaIcEEESaIS8_EE
librocclr.so.5.1:_ZN3amd6option7OptionsC1Ev
librocclr.so.5.1:_ZN3amd6option7OptionsC2Ev
librocclr.so.5.1:_ZN3amd6option7OptionsD1Ev
librocclr.so.5.1:_ZN3amd6option7OptionsD2Ev
librocclr.so.5.1:_ZN3amd6option8teardownEv
librocclr.so.5.1:_ZN3amd7Command16releaseResourcesEv
librocclr.so.5.1:_ZN3amd7Command7enqueueEv
librocclr.so.5.1:_ZN3amd7CommandC2ERNS_9HostQueueEjRKSt6vectorIPNS_5EventESaIS5_EEjPKS4_
librocclr.so.5.1:_ZN3amd7Context14addDeviceQueueERKNS_6DeviceEPNS_11DeviceQueueEb
librocclr.so.5.1:_ZN3amd7Context15checkPropertiesEPKlPNS0_4InfoE
librocclr.so.5.1:_ZN3amd7Context17removeDeviceQueueERKNS_6DeviceEPNS_11DeviceQueueE
librocclr.so.5.1:_ZN3amd7Context18isDevQueuePossibleERKNS_6DeviceE
librocclr.so.5.1:_ZN3amd7Context6createEPKl
librocclr.so.5.1:_ZN3amd7Context8svmAllocEmmmPKNS_6DeviceE
librocclr.so.5.1:_ZN3amd7ContextC1ERKSt6vectorIPNS_6DeviceESaIS3_EERKNS0_4InfoE
librocclr.so.5.1:_ZN3amd7ContextC2ERKSt6vectorIPNS_6DeviceESaIS3_EERKNS0_4InfoE
librocclr.so.5.1:_ZN3amd7ContextD0Ev
librocclr.so.5.1:_ZN3amd7ContextD1Ev
librocclr.so.5.1:_ZN3amd7ContextD2Ev
librocclr.so.5.1:_ZN3amd7Monitor10finishLockEv
librocclr.so.5.1:_ZN3amd7Monitor11trySpinLockEv
librocclr.so.5.1:_ZN3amd7Monitor12finishUnlockEv
librocclr.so.5.1:_ZN3amd7Monitor4waitEv
librocclr.so.5.1:_ZN3amd7Monitor6notifyEv
librocclr.so.5.1:_ZN3amd7Monitor9notifyAllEv
librocclr.so.5.1:_ZN3amd7MonitorC1EPKcb
librocclr.so.5.1:_ZN3amd7MonitorC2EPKcb
librocclr.so.5.1:_ZN3amd7NDRangeC1ERKS0_
librocclr.so.5.1:_ZN3amd7NDRangeC1Em
librocclr.so.5.1:_ZN3amd7NDRangeC2ERKS0_
librocclr.so.5.1:_ZN3amd7NDRangeC2Em
librocclr.so.5.1:_ZN3amd7NDRangeD1Ev
librocclr.so.5.1:_ZN3amd7NDRangeD2Ev
librocclr.so.5.1:_ZN3amd7NDRangeaSEm
librocclr.so.5.1:_ZN3amd7Program10buildLock_E
librocclr.so.5.1:_ZN3amd7Program11kernelNamesB5cxx11Ev
librocclr.so.5.1:_ZN3amd7Program14GetOclCVersionEPKc
librocclr.so.5.1:_ZN3amd7Program15ParseAllOptionsERKNSt7__cxx1112basic_stringIcSt11char_traitsIcESaIcEEERNS_6option7OptionsEbbb
librocclr.so.5.1:_ZN3amd7Program16addDeviceProgramERNS_6DeviceEPKvmbPNS_6option7OptionsEPKS0_imNSt7__cxx1112basic_stringIcSt11char_traitsIcESaIcEEE
librocclr.so.5.1:_ZN3amd7Program17StubProgramSourceERKNSt7__cxx1112basic_stringIcSt11char_traitsIcESaIcEEE
librocclr.so.5.1:_ZN3amd7Program4linkERKSt6vectorIPNS_6DeviceESaIS3_EEmRKS1_IPS0_SaIS8_EEPKcPFvP11_cl_programPvESH_b
librocclr.so.5.1:_ZN3amd7Program4loadERKSt6vectorIPNS_6DeviceESaIS3_EE
librocclr.so.5.1:_ZN3amd7Program5buildERKSt6vectorIPNS_6DeviceESaIS3_EEPKcPFvP11_cl_programPvESC_bb
librocclr.so.5.1:_ZN3amd7Program5clearEv
librocclr.so.5.1:_ZN3amd7Program6unloadEv
librocclr.so.5.1:_ZN3amd7Program7compileERKSt6vectorIPNS_6DeviceESaIS3_EEmRKS1_IPKS0_SaIS9_EEPPKcSF_PFvP11_cl_programPvESJ_b
librocclr.so.5.1:_ZN3amd7ProgramD0Ev
librocclr.so.5.1:_ZN3amd7ProgramD1Ev
librocclr.so.5.1:_ZN3amd7ProgramD2Ev
librocclr.so.5.1:_ZN3amd7Runtime12initialized_E
librocclr.so.5.1:_ZN3amd7Runtime4initEv
librocclr.so.5.1:_ZN3amd7Runtime8tearDownEv
librocclr.so.5.1:_ZN3amd7details7thread_E
librocclr.so.5.1:_ZN3amd7outFileE
librocclr.so.5.1:_ZN3amd9HostQueue20getLastQueuedCommandEb
librocclr.so.5.1:_ZN3amd9HostQueue4loopEPN6device13VirtualDeviceE
librocclr.so.5.1:_ZN3amd9HostQueue6appendERNS_7CommandE
librocclr.so.5.1:_ZN3amd9HostQueue6finishEv
librocclr.so.5.1:_ZN3amd9HostQueue7isEmptyEv
librocclr.so.5.1:_ZN3amd9HostQueue9terminateEv
librocclr.so.5.1:_ZN3amd9HostQueueC1ERNS_7ContextERNS_6DeviceEmjNS_12CommandQueue8PriorityERKSt6vectorIjSaIjEE
librocclr.so.5.1:_ZN3amd9HostQueueC2ERNS_7ContextERNS_6DeviceEmjNS_12CommandQueue8PriorityERKSt6vectorIjSaIjEE
librocclr.so.5.1:_ZN3amd9IS_LEGACYE
librocclr.so.5.1:_ZN3amd9MemObjMap10FindMemObjEPKv
librocclr.so.5.1:_ZN3amd9MemObjMap10MemObjMap_E
librocclr.so.5.1:_ZN3amd9MemObjMap12RemoveMemObjEPKv
librocclr.so.5.1:_ZN3amd9MemObjMap12UpdateAccessEPNS_6DeviceE
librocclr.so.5.1:_ZN3amd9MemObjMap14AllocatedLock_E
librocclr.so.5.1:_ZN3amd9MemObjMap4sizeEv
librocclr.so.5.1:_ZN3amd9MemObjMap5PurgeEPNS_6DeviceE
librocclr.so.5.1:_ZN3amd9MemObjMap9AddMemObjEPKvPNS_6MemoryE
librocclr.so.5.1:_ZN3amd9Semaphore4postEv
librocclr.so.5.1:_ZN3amd9Semaphore4waitEv
librocclr.so.5.1:_ZN3amd9Semaphore9timedWaitEi
librocclr.so.5.1:_ZN3amd9SemaphoreC1Ev
librocclr.so.5.1:_ZN3amd9SemaphoreC2Ev
librocclr.so.5.1:_ZN3amd9SemaphoreD1Ev
librocclr.so.5.1:_ZN3amd9SemaphoreD2Ev
librocclr.so.5.1:_ZN3amd9SvmBuffer10Allocated_E
librocclr.so.5.1:_ZN3amd9SvmBuffer14AllocatedLock_E
librocclr.so.5.1:_ZN3amd9SvmBuffer3AddEmm
librocclr.so.5.1:_ZN3amd9SvmBuffer4freeERKNS_7ContextEPv
librocclr.so.5.1:_ZN3amd9SvmBuffer6RemoveEm
librocclr.so.5.1:_ZN3amd9SvmBuffer6mallocERNS_7ContextEmmmPKNS_6DeviceE
librocclr.so.5.1:_ZN3amd9SvmBuffer7memFillEPvPKvmm
librocclr.so.5.1:_ZN3amd9SvmBuffer8ContainsEm
librocclr.so.5.1:_ZN3amd9SvmBuffer8mallocedEPKv
librocclr.so.5.1:_ZN3amd9log_entryENS_8LogLevelEPKciS2_
librocclr.so.5.1:_ZN3roc10AppProfile23ParseApplicationProfileEv
librocclr.so.5.1:_ZN3roc10NullDevice12initCompilerEb
librocclr.so.5.1:_ZN3roc10NullDevice13createProgramERN3amd7ProgramEPNS1_6option7OptionsE
librocclr.so.5.1:_ZN3roc10NullDevice15destroyCompilerEv
librocclr.so.5.1:_ZN3roc10NullDevice4initEv
librocclr.so.5.1:_ZN3roc10NullDevice6createERKN3amd3IsaE
librocclr.so.5.1:_ZN3roc10NullDevice8tearDownEv
librocclr.so.5.1:_ZN3roc10NullDeviceD0Ev
librocclr.so.5.1:_ZN3roc10NullDeviceD1Ev
librocclr.so.5.1:_ZN3roc10NullDeviceD2Ev
librocclr.so.5.1:_ZN3roc10VirtualGPU10copyMemoryEjRN3amd6MemoryES3_bRKNS1_7Coord3DES6_S6_RKNS1_10BufferRectES9_
librocclr.so.5.1:_ZN3roc10VirtualGPU10fillMemoryEjPN3amd6MemoryEPKvmRKNS1_7Coord3DES8_b
librocclr.so.5.1:_ZN3roc10VirtualGPU11destroyPoolEv
librocclr.so.5.1:_ZN3roc10VirtualGPU12addPinnedMemEPN3amd6MemoryE
librocclr.so.5.1:_ZN3roc10VirtualGPU12addXferWriteERNS_6MemoryE
librocclr.so.5.1:_ZN3roc10VirtualGPU12allocKernArgEmm
librocclr.so.5.1:_ZN3roc10VirtualGPU12profilingEndERN3amd7CommandE
librocclr.so.5.1:_ZN3roc10VirtualGPU12submitKernelERN3amd20NDRangeKernelCommandE
librocclr.so.5.1:_ZN3roc10VirtualGPU12submitMarkerERN3amd6MarkerE
librocclr.so.5.1:_ZN3roc10VirtualGPU13findPinnedMemEPvm
librocclr.so.5.1:_ZN3roc10VirtualGPU14HwQueueTracker12ActiveSignalElPNS_9TimestampEj
librocclr.so.5.1:_ZN3roc10VirtualGPU14HwQueueTracker13WaitingSignalENS_13HwQueueEngineE
librocclr.so.5.1:_ZN3roc10VirtualGPU14HwQueueTracker16CpuWaitForSignalEPNS_15ProfilingSignalE
librocclr.so.5.1:_ZN3roc10VirtualGPU14HwQueueTracker18ResetCurrentSignalEv
librocclr.so.5.1:_ZN3roc10VirtualGPU14HwQueueTracker6CreateEv
librocclr.so.5.1:_ZN3roc10VirtualGPU14HwQueueTrackerD1Ev
librocclr.so.5.1:_ZN3roc10VirtualGPU14HwQueueTrackerD2Ev
librocclr.so.5.1:_ZN3roc10VirtualGPU14profilingBeginERN3amd7CommandEb
librocclr.so.5.1:_ZN3roc10VirtualGPU14submitNativeFnERN3amd15NativeFnCommandE
librocclr.so.5.1:_ZN3roc10VirtualGPU15submitMapMemoryERN3amd16MapMemoryCommandE
librocclr.so.5.1:_ZN3roc10VirtualGPU16MemoryDependency5clearEb
librocclr.so.5.1:_ZN3roc10VirtualGPU16MemoryDependency6createEm
librocclr.so.5.1:_ZN3roc10VirtualGPU16MemoryDependency8validateERS0_PKNS_6MemoryEb
librocclr.so.5.1:_ZN3roc10VirtualGPU16ResetQueueStatesEv
librocclr.so.5.1:_ZN3roc10VirtualGPU16releasePinnedMemEv
librocclr.so.5.1:_ZN3roc10VirtualGPU16releaseXferWriteEv
librocclr.so.5.1:_ZN3roc10VirtualGPU16submitCopyMemoryERN3amd17CopyMemoryCommandE
librocclr.so.5.1:_ZN3roc10VirtualGPU16submitFillMemoryERN3amd17FillMemoryCommandE
librocclr.so.5.1:_ZN3roc10VirtualGPU16submitReadMemoryERN3amd17ReadMemoryCommandE
librocclr.so.5.1:_ZN3roc10VirtualGPU17dispatchAqlPacketEP24hsa_barrier_and_packet_sttb
librocclr.so.5.1:_ZN3roc10VirtualGPU17dispatchAqlPacketEP28hsa_kernel_dispatch_packet_sttb
librocclr.so.5.1:_ZN3roc10VirtualGPU17processMemObjectsERKN3amd6KernelEPKhRmbRbRSt6vectorIPN6device6MemoryESaISC_EE
librocclr.so.5.1:_ZN3roc10VirtualGPU17submitPerfCounterERN3amd18PerfCounterCommandE
librocclr.so.5.1:_ZN3roc10VirtualGPU17submitUnmapMemoryERN3amd18UnmapMemoryCommandE
librocclr.so.5.1:_ZN3roc10VirtualGPU17submitWriteMemoryERN3amd18WriteMemoryCommandE
librocclr.so.5.1:_ZN3roc10VirtualGPU18createVirtualQueueEj
librocclr.so.5.1:_ZN3roc10VirtualGPU18submitSvmMapMemoryERN3amd19SvmMapMemoryCommandE
librocclr.so.5.1:_ZN3roc10VirtualGPU19getVQVirtualAddressEv
librocclr.so.5.1:_ZN3roc10VirtualGPU19submitCopyMemoryP2PERN3amd20CopyMemoryP2PCommandE
librocclr.so.5.1:_ZN3roc10VirtualGPU19submitSvmCopyMemoryERN3amd20SvmCopyMemoryCommandE
librocclr.so.5.1:_ZN3roc10VirtualGPU19submitSvmFillMemoryERN3amd20SvmFillMemoryCommandE
librocclr.so.5.1:_ZN3roc10VirtualGPU19submitSvmFreeMemoryERN3amd20SvmFreeMemoryCommandE
librocclr.so.5.1:_ZN3roc10VirtualGPU20allocKernelArgumentsEmm
librocclr.so.5.1:_ZN3roc10VirtualGPU20createSchedulerParamEv
librocclr.so.5.1:_ZN3roc10VirtualGPU20dispatchBlockingWaitEv
librocclr.so.5.1:_ZN3roc10VirtualGPU20submitKernelInternalERKN3amd16NDRangeContainerERKNS1_6KernelEPKhPvjPNS1_20NDRangeKernelCommandE
librocclr.so.5.1:_ZN3roc10VirtualGPU20submitSvmUnmapMemoryERN3amd21SvmUnmapMemoryCommandE
librocclr.so.5.1:_ZN3roc10VirtualGPU21dispatchBarrierPacketEtb12hsa_signal_s
librocclr.so.5.1:_ZN3roc10VirtualGPU21releaseGpuMemoryFenceEb
librocclr.so.5.1:_ZN3roc10VirtualGPU21submitStreamOperationERN3amd22StreamOperationCommandE
librocclr.so.5.1:_ZN3roc10VirtualGPU22submitSvmPrefetchAsyncERN3amd23SvmPrefetchAsyncCommandE
librocclr.so.5.1:_ZN3roc10VirtualGPU23submitAcquireExtObjectsERN3amd24AcquireExtObjectsCommandE
librocclr.so.5.1:_ZN3roc10VirtualGPU23submitMigrateMemObjectsERN3amd24MigrateMemObjectsCommandE
librocclr.so.5.1:_ZN3roc10VirtualGPU23submitReleaseExtObjectsERN3amd24ReleaseExtObjectsCommandE
librocclr.so.5.1:_ZN3roc10VirtualGPU24dispatchCounterAqlPacketEP28hsa_ext_amd_aql_pm4_packet_tjbPK33hsa_ven_amd_aqlprofile_1_00_pfn_s
librocclr.so.5.1:_ZN3roc10VirtualGPU26dispatchBarrierValuePacketEPK30hsa_amd_barrier_value_packet_s23hsa_amd_packet_header_s
librocclr.so.5.1:_ZN3roc10VirtualGPU28submitTransferBufferFromFileERN3amd25TransferBufferFileCommandE
librocclr.so.5.1:_ZN3roc10VirtualGPU5flushEPN3amd7CommandEb
librocclr.so.5.1:_ZN3roc10VirtualGPU6createEv
librocclr.so.5.1:_ZN3roc10VirtualGPU8initPoolEm
librocclr.so.5.1:_ZN3roc10VirtualGPUC1ERNS_6DeviceEbbRKSt6vectorIjSaIjEEN3amd12CommandQueue8PriorityE
librocclr.so.5.1:_ZN3roc10VirtualGPUC2ERNS_6DeviceEbbRKSt6vectorIjSaIjEEN3amd12CommandQueue8PriorityE
librocclr.so.5.1:_ZN3roc10VirtualGPUD0Ev
librocclr.so.5.1:_ZN3roc10VirtualGPUD1Ev
librocclr.so.5.1:_ZN3roc10VirtualGPUD2Ev
librocclr.so.5.1:_ZN3roc11FindPinSizeERmRKN3amd7Coord3DES0_S0_RKNS_6MemoryE
librocclr.so.5.1:_ZN3roc11MesaInterop4InitENS0_17MESA_INTEROP_KINDE
librocclr.so.5.1:_ZN3roc11MesaInterop6ExportER24mesa_glinterop_export_inR25mesa_glinterop_export_outNS0_17MESA_INTEROP_KINDENS0_13DisplayHandleENS0_13ContextHandleE
librocclr.so.5.1:_ZN3roc11MesaInterop7GetInfoER26mesa_glinterop_device_infoNS0_17MESA_INTEROP_KINDENS0_13DisplayHandleENS0_13ContextHandleE
librocclr.so.5.1:_ZN3roc11MesaInterop9SupportedEv
librocclr.so.5.1:_ZN3roc11PerfCounter10setProfileEPNS_18PerfCounterProfileE
librocclr.so.5.1:_ZN3roc11PerfCounterC1ERKNS_6DeviceEjjj
librocclr.so.5.1:_ZN3roc11PerfCounterC2ERKNS_6DeviceEjjj
librocclr.so.5.1:_ZN3roc11PerfCounterD0Ev
librocclr.so.5.1:_ZN3roc11PerfCounterD1Ev
librocclr.so.5.1:_ZN3roc11PerfCounterD2Ev
librocclr.so.5.1:_ZN3roc12HSAILProgram10setKernelsEPvmimNSt7__cxx1112basic_stringIcSt11char_traitsIcESaIcEEE
librocclr.so.5.1:_ZN3roc12HSAILProgram20saveBinaryAndSetTypeEN6device7Program6type_tE
librocclr.so.5.1:_ZN3roc12HSAILProgramC1ERNS_10NullDeviceERN3amd7ProgramE
librocclr.so.5.1:_ZN3roc12HSAILProgramC2ERNS_10NullDeviceERN3amd7ProgramE
librocclr.so.5.1:_ZN3roc12HSAILProgramD0Ev
librocclr.so.5.1:_ZN3roc12HSAILProgramD1Ev
librocclr.so.5.1:_ZN3roc12HSAILProgramD2Ev
librocclr.so.5.1:_ZN3roc14DmaBlitManagerC1ERNS_10VirtualGPUEN6device11BlitManager5SetupE
librocclr.so.5.1:_ZN3roc14DmaBlitManagerC2ERNS_10VirtualGPUEN6device11BlitManager5SetupE
librocclr.so.5.1:_ZN3roc15LightningKernel4initEv
librocclr.so.5.1:_ZN3roc15LightningKernel8postLoadEv
librocclr.so.5.1:_ZN3roc15ProfilingSignalD0Ev
librocclr.so.5.1:_ZN3roc15ProfilingSignalD1Ev
librocclr.so.5.1:_ZN3roc15ProfilingSignalD2Ev
librocclr.so.5.1:_ZN3roc16LightningProgram10setKernelsEPvmimNSt7__cxx1112basic_stringIcSt11char_traitsIcESaIcEEE
librocclr.so.5.1:_ZN3roc16LightningProgram12createBinaryEPN3amd6option7OptionsE
librocclr.so.5.1:_ZN3roc16LightningProgram13createKernelsEPvmbb
librocclr.so.5.1:_ZN3roc16LightningProgram20saveBinaryAndSetTypeEN6device7Program6type_tEPvm
librocclr.so.5.1:_ZN3roc16LightningProgramC1ERNS_10NullDeviceERN3amd7ProgramE
librocclr.so.5.1:_ZN3roc16LightningProgramC2ERNS_10NullDeviceERN3amd7ProgramE
librocclr.so.5.1:_ZN3roc17GwsInitSourceCodeE
librocclr.so.5.1:_ZN3roc17KernelBlitManager12runSchedulerEmPN3amd6MemoryEP11hsa_queue_sR12hsa_signal_sj
librocclr.so.5.1:_ZN3roc17KernelBlitManager13createProgramERNS_6DeviceE
librocclr.so.5.1:_ZN3roc17KernelBlitManager6createERN3amd6DeviceE
librocclr.so.5.1:_ZN3roc17KernelBlitManagerC1ERNS_10VirtualGPUEN6device11BlitManager5SetupE
librocclr.so.5.1:_ZN3roc17KernelBlitManagerC2ERNS_10VirtualGPUEN6device11BlitManager5SetupE
librocclr.so.5.1:_ZN3roc17KernelBlitManagerD0Ev
librocclr.so.5.1:_ZN3roc17KernelBlitManagerD1Ev
librocclr.so.5.1:_ZN3roc17KernelBlitManagerD2Ev
librocclr.so.5.1:_ZN3roc18PerfCounterProfile10initializeEv
librocclr.so.5.1:_ZN3roc18PerfCounterProfile16createStopPacketEv
librocclr.so.5.1:_ZN3roc18PerfCounterProfile17createStartPacketEv
librocclr.so.5.1:_ZN3roc18PerfCounterProfileD0Ev
librocclr.so.5.1:_ZN3roc18PerfCounterProfileD1Ev
librocclr.so.5.1:_ZN3roc18PerfCounterProfileD2Ev
librocclr.so.5.1:_ZN3roc19CalcRowSlicePitchesEPmPKimmRKNS_6MemoryE
librocclr.so.5.1:_ZN3roc19HsaAmdSignalHandlerElPv
librocclr.so.5.1:_ZN3roc19SchedulerSourceCodeE
librocclr.so.5.1:_ZN3roc23rocBlitLinearSourceCodeE
librocclr.so.5.1:_ZN3roc5Image10createViewERKNS_6MemoryE
librocclr.so.5.1:_ZN3roc5Image14ValidateMemoryEv
librocclr.so.5.1:_ZN3roc5Image14allocMapTargetERKN3amd7Coord3DES4_jPmS5_
librocclr.so.5.1:_ZN3roc5Image18createInteropImageEv
librocclr.so.5.1:_ZN3roc5Image23populateImageDescriptorEv
librocclr.so.5.1:_ZN3roc5Image6createEv
librocclr.so.5.1:_ZN3roc5Image7destroyEv
librocclr.so.5.1:_ZN3roc5ImageC1ERKNS_6DeviceERN3amd6MemoryE
librocclr.so.5.1:_ZN3roc5ImageC2ERKNS_6DeviceERN3amd6MemoryE
librocclr.so.5.1:_ZN3roc5ImageD0Ev
librocclr.so.5.1:_ZN3roc5ImageD1Ev
librocclr.so.5.1:_ZN3roc5ImageD2Ev
librocclr.so.5.1:_ZN3roc6Buffer6createEv
librocclr.so.5.1:_ZN3roc6Buffer7destroyEv
librocclr.so.5.1:_ZN3roc6BufferC1ERKNS_6DeviceERN3amd6MemoryE
librocclr.so.5.1:_ZN3roc6BufferC1ERKNS_6DeviceEm
librocclr.so.5.1:_ZN3roc6BufferC2ERKNS_6DeviceERN3amd6MemoryE
librocclr.so.5.1:_ZN3roc6BufferC2ERKNS_6DeviceEm
librocclr.so.5.1:_ZN3roc6BufferD0Ev
librocclr.so.5.1:_ZN3roc6BufferD1Ev
librocclr.so.5.1:_ZN3roc6BufferD2Ev
librocclr.so.5.1:_ZN3roc6Device10disableP2PEPN3amd6DeviceE
librocclr.so.5.1:_ZN3roc6Device11XferBuffers6createEv
librocclr.so.5.1:_ZN3roc6Device11XferBuffers7acquireEv
librocclr.so.5.1:_ZN3roc6Device11XferBuffers7releaseERNS_10VirtualGPUERNS_6MemoryE
librocclr.so.5.1:_ZN3roc6Device11XferBuffersD1Ev
librocclr.so.5.1:_ZN3roc6Device11XferBuffersD2Ev
librocclr.so.5.1:_ZN3roc6Device11cpu_agents_E
librocclr.so.5.1:_ZN3roc6Device11gpu_agents_E
librocclr.so.5.1:_ZN3roc6Device12SetClockModeE35_cl_set_device_clock_mode_input_amdP36_cl_set_device_clock_mode_output_amd
librocclr.so.5.1:_ZN3roc6Device12acquireQueueEjbRKSt6vectorIjSaIjEEN3amd12CommandQueue8PriorityE
librocclr.so.5.1:_ZN3roc6Device12findLinkInfoERK21hsa_amd_memory_pool_sPSt6vectorISt4pairIN3amd6Device13LinkAttributeEiESaIS9_EE
librocclr.so.5.1:_ZN3roc6Device12findLinkInfoERKN3amd6DeviceEPSt6vectorISt4pairINS2_13LinkAttributeEiESaIS8_EE
librocclr.so.5.1:_ZN3roc6Device12releaseQueueEP11hsa_queue_sRKSt6vectorIjSaIjEE
librocclr.so.5.1:_ZN3roc6Device13createProgramERN3amd7ProgramEPNS1_6option7OptionsE
librocclr.so.5.1:_ZN3roc6Device13setupCpuAgentEv
librocclr.so.5.1:_ZN3roc6Device14GetArenaMemObjEPKvRm
librocclr.so.5.1:_ZN3roc6Device15getGlobalCUMaskENSt7__cxx1112basic_stringIcSt11char_traitsIcESaIcEEE
librocclr.so.5.1:_ZN3roc6Device16getQueueFromPoolEj
librocclr.so.5.1:_ZN3roc6Device16updateFreeMemoryEmb
librocclr.so.5.1:_ZN3roc6Device17createBlitProgramEv
librocclr.so.5.1:_ZN3roc6Device17isHsaInitialized_E
librocclr.so.5.1:_ZN3roc6Device18bindExternalDeviceEjPKPvS1_b
librocclr.so.5.1:_ZN3roc6Device19createVirtualDeviceEPN3amd12CommandQueueE
librocclr.so.5.1:_ZN3roc6Device20amd_loader_ext_tableE
librocclr.so.5.1:_ZN3roc6Device20iterateAgentCallbackE11hsa_agent_sPv
librocclr.so.5.1:_ZN3roc6Device20unbindExternalDeviceEjPKPvS1_b
librocclr.so.5.1:_ZN3roc6Device22loaderQueryHostAddressEPKvPS2_
librocclr.so.5.1:_ZN3roc6Device25AcquireExclusiveGpuAccessEv
librocclr.so.5.1:_ZN3roc6Device25getOrCreateHostcallBufferEP11hsa_queue_sbRKSt6vectorIjSaIjEE
librocclr.so.5.1:_ZN3roc6Device26populateOCLDeviceConstantsEv
librocclr.so.5.1:_ZN3roc6Device28iterateCpuMemoryPoolCallbackE21hsa_amd_memory_pool_sPv
librocclr.so.5.1:_ZN3roc6Device28iterateGpuMemoryPoolCallbackE21hsa_amd_memory_pool_sPv
librocclr.so.5.1:_ZN3roc6Device4initEv
librocclr.so.5.1:_ZN3roc6Device6createEv
librocclr.so.5.1:_ZN3roc6Device8mg_sync_E
librocclr.so.5.1:_ZN3roc6Device8tearDownEv
librocclr.so.5.1:_ZN3roc6Device9enableP2PEPN3amd6DeviceE
librocclr.so.5.1:_ZN3roc6DeviceC1E11hsa_agent_s
librocclr.so.5.1:_ZN3roc6DeviceC2E11hsa_agent_s
librocclr.so.5.1:_ZN3roc6DeviceD0Ev
librocclr.so.5.1:_ZN3roc6DeviceD1Ev
librocclr.so.5.1:_ZN3roc6DeviceD2Ev
librocclr.so.5.1:_ZN3roc6KernelC2ENSt7__cxx1112basic_stringIcSt11char_traitsIcESaIcEEEPNS_7ProgramE
librocclr.so.5.1:_ZN3roc6KernelC2ENSt7__cxx1112basic_stringIcSt11char_traitsIcESaIcEEEPNS_7ProgramERKmjjjj
librocclr.so.5.1:_ZN3roc6Memory14allocMapTargetERKN3amd7Coord3DES4_jPmS5_
librocclr.so.5.1:_ZN3roc6Memory14decIndMapCountEv
librocclr.so.5.1:_ZN3roc6Memory15pinSystemMemoryEPvm
librocclr.so.5.1:_ZN3roc6Memory16interopMapBufferEi
librocclr.so.5.1:_ZN3roc6Memory17allocateMapMemoryEm
librocclr.so.5.1:_ZN3roc6Memory17syncCacheFromHostERNS_10VirtualGPUEN6device6Memory9SyncFlagsE
librocclr.so.5.1:_ZN3roc6Memory17syncHostFromCacheEN6device6Memory9SyncFlagsE
librocclr.so.5.1:_ZN3roc6Memory18mgpuCacheWriteBackEv
librocclr.so.5.1:_ZN3roc6Memory19createInteropBufferEji
librocclr.so.5.1:_ZN3roc6Memory20destroyInteropBufferEv
librocclr.so.5.1:_ZN3roc6Memory6cpuMapERN6device13VirtualDeviceEjjjPmS4_
librocclr.so.5.1:_ZN3roc6Memory8cpuUnmapERN6device13VirtualDeviceE
librocclr.so.5.1:_ZN3roc6MemoryC2ERKNS_6DeviceERN3amd6MemoryE
librocclr.so.5.1:_ZN3roc6MemoryC2ERKNS_6DeviceEm
librocclr.so.5.1:_ZN3roc6MemoryD0Ev
librocclr.so.5.1:_ZN3roc6MemoryD1Ev
librocclr.so.5.1:_ZN3roc6MemoryD2Ev
librocclr.so.5.1:_ZN3roc6Signal4InitERKN3amd6DeviceEmN6device6Signal9WaitStateE
librocclr.so.5.1:_ZN3roc6Signal4WaitEmN6device6Signal9ConditionEm
librocclr.so.5.1:_ZN3roc6Signal5ResetEm
librocclr.so.5.1:_ZN3roc6SignalD0Ev
librocclr.so.5.1:_ZN3roc6SignalD1Ev
librocclr.so.5.1:_ZN3roc6SignalD2Ev
librocclr.so.5.1:_ZN3roc7Program12initClBinaryEPcm
librocclr.so.5.1:_ZN3roc7Program15defineGlobalVarEPKcPv
librocclr.so.5.1:_ZN3roc7ProgramC2ERNS_10NullDeviceERN3amd7ProgramE
librocclr.so.5.1:_ZN3roc7ProgramD0Ev
librocclr.so.5.1:_ZN3roc7ProgramD1Ev
librocclr.so.5.1:_ZN3roc7ProgramD2Ev
librocclr.so.5.1:_ZN3roc7Sampler6createERKN3amd7SamplerE
librocclr.so.5.1:_ZN3roc7SamplerD0Ev
librocclr.so.5.1:_ZN3roc7SamplerD1Ev
librocclr.so.5.1:_ZN3roc7SamplerD2Ev
librocclr.so.5.1:_ZN3roc8Settings6createEbjjjbb
librocclr.so.5.1:_ZN3roc8Settings8overrideEv
librocclr.so.5.1:_ZN3roc8SettingsC1Ev
librocclr.so.5.1:_ZN3roc8SettingsC2Ev
librocclr.so.5.1:_ZN3roc9PrintfDbg4initEb
librocclr.so.5.1:_ZN3roc9PrintfDbg6outputERNS_10VirtualGPUEbRKSt6vectorIN6device10PrintfInfoESaIS5_EE
librocclr.so.5.1:_ZN3roc9PrintfDbg8allocateEb
librocclr.so.5.1:_ZN3roc9PrintfDbgC1ERNS_6DeviceEP8_IO_FILE
librocclr.so.5.1:_ZN3roc9PrintfDbgC2ERNS_6DeviceEP8_IO_FILE
librocclr.so.5.1:_ZN3roc9PrintfDbgD1Ev
librocclr.so.5.1:_ZN3roc9PrintfDbgD2Ev
librocclr.so.5.1:_ZN3roc9Timestamp12checkGpuTimeEv
librocclr.so.5.1:_ZN3roc9Timestamp12ticksToTime_E
librocclr.so.5.1:_ZN6device10getMetaBufE25amd_comgr_metadata_node_sPNSt7__cxx1112basic_stringIcSt11char_traitsIcESaIcEEE
librocclr.so.5.1:_ZN6device11WaveLimiter10AdaptCountE
librocclr.so.5.1:_ZN6device11WaveLimiter10DataDumper7addDataEmjc
librocclr.so.5.1:_ZN6device11WaveLimiter10DataDumperC1ERKNSt7__cxx1112basic_stringIcSt11char_traitsIcESaIcEEEb
librocclr.so.5.1:_ZN6device11WaveLimiter10DataDumperC2ERKNSt7__cxx1112basic_stringIcSt11char_traitsIcESaIcEEEb
librocclr.so.5.1:_ZN6device11WaveLimiter10DataDumperD1Ev
librocclr.so.5.1:_ZN6device11WaveLimiter10DataDumperD2Ev
librocclr.so.5.1:_ZN6device11WaveLimiter13getWavesPerSHEv
librocclr.so.5.1:_ZN6device11WaveLimiter7MaxWaveE
librocclr.so.5.1:_ZN6device11WaveLimiter8RunCountE
librocclr.so.5.1:_ZN6device11WaveLimiterC2EPNS_18WaveLimiterManagerEjbb
librocclr.so.5.1:_ZN6device11WaveLimiterD0Ev
librocclr.so.5.1:_ZN6device11WaveLimiterD1Ev
librocclr.so.5.1:_ZN6device11WaveLimiterD2Ev
librocclr.so.5.1:_ZN6device13isSPIRVMagicLEPKvm
librocclr.so.5.1:_ZN6device15ComgrBinaryData4dataEv
librocclr.so.5.1:_ZN6device15ComgrBinaryData6createE21amd_comgr_data_kind_sPvm
librocclr.so.5.1:_ZN6device15ComgrBinaryDataD1Ev
librocclr.so.5.1:_ZN6device15ComgrBinaryDataD2Ev
librocclr.so.5.1:_ZN6device15HostBlitManager14FillBufferInfo15ExpandPattern64EmmRm
librocclr.so.5.1:_ZN6device15HostBlitManager14FillBufferInfo8PackInfoERKNS_6MemoryEmmPKvmRSt6vectorIS1_SaIS1_EE
librocclr.so.5.1:_ZN6device15HostBlitManagerC1ERNS_13VirtualDeviceENS_11BlitManager5SetupE
librocclr.so.5.1:_ZN6device15HostBlitManagerC2ERNS_13VirtualDeviceENS_11BlitManager5SetupE
librocclr.so.5.1:_ZN6device17WLAlgorithmSmooth10updateDataEm
librocclr.so.5.1:_ZN6device17WLAlgorithmSmooth11outputTraceEv
librocclr.so.5.1:_ZN6device17WLAlgorithmSmooth8callbackEmj
librocclr.so.5.1:_ZN6device17WLAlgorithmSmooth9clearDataEv
librocclr.so.5.1:_ZN6device17WLAlgorithmSmoothC1EPNS_18WaveLimiterManagerEjbb
librocclr.so.5.1:_ZN6device17WLAlgorithmSmoothC2EPNS_18WaveLimiterManagerEjbb
librocclr.so.5.1:_ZN6device17WLAlgorithmSmoothD0Ev
librocclr.so.5.1:_ZN6device17WLAlgorithmSmoothD1Ev
librocclr.so.5.1:_ZN6device17WLAlgorithmSmoothD2Ev
librocclr.so.5.1:_ZN6device18WaveLimiterManager20getProfilingCallbackEPKNS_13VirtualDeviceE
librocclr.so.5.1:_ZN6device18WaveLimiterManager6enableEb
librocclr.so.5.1:_ZN6device18WaveLimiterManagerC1EPNS_6KernelEj
librocclr.so.5.1:_ZN6device18WaveLimiterManagerC2EPNS_6KernelEj
librocclr.so.5.1:_ZN6device18WaveLimiterManagerD0Ev
librocclr.so.5.1:_ZN6device18WaveLimiterManagerD1Ev
librocclr.so.5.1:_ZN6device18WaveLimiterManagerD2Ev
librocclr.so.5.1:_ZN6device19BlitImageSourceCodeE
librocclr.so.5.1:_ZN6device19getSymbolFromModuleE18amd_comgr_symbol_sPv
librocclr.so.5.1:_ZN6device20BlitLinearSourceCodeE
librocclr.so.5.1:_ZN6device6Kernel10InitPrintfERKSt6vectorINSt7__cxx1112basic_stringIcSt11char_traitsIcESaIcEEESaIS7_EE
librocclr.so.5.1:_ZN6device6Kernel12GetPrintfStrEPSt6vectorINSt7__cxx1112basic_stringIcSt11char_traitsIcESaIcEEESaIS7_EE
librocclr.so.5.1:_ZN6device6Kernel14InitParametersE25amd_comgr_metadata_node_s
librocclr.so.5.1:_ZN6device6Kernel15createSignatureERKSt6vectorIN3amd25KernelParameterDescriptorESaIS3_EEjj
librocclr.so.5.1:_ZN6device6Kernel20SetAvailableSgprVgprEv
librocclr.so.5.1:_ZN6device6Kernel23GetAttrCodePropMetadataEv
librocclr.so.5.1:_ZN6device6KernelC1ERKN3amd6DeviceERKNSt7__cxx1112basic_stringIcSt11char_traitsIcESaIcEEERKNS_7ProgramE
librocclr.so.5.1:_ZN6device6KernelC2ERKN3amd6DeviceERKNSt7__cxx1112basic_stringIcSt11char_traitsIcESaIcEEERKNS_7ProgramE
librocclr.so.5.1:_ZN6device6KernelD0Ev
librocclr.so.5.1:_ZN6device6KernelD1Ev
librocclr.so.5.1:_ZN6device6KernelD2Ev
librocclr.so.5.1:_ZN6device6Memory11saveMapInfoEPKvN3amd7Coord3DES4_jbPNS3_5ImageE
librocclr.so.5.1:_ZN6device7Program10linkImplLCEPN3amd6option7OptionsE
librocclr.so.5.1:_ZN6device7Program10linkImplLCERKSt6vectorIPS0_SaIS2_EEPN3amd6option7OptionsEb
librocclr.so.5.1:_ZN6device7Program11compileImplERKNSt7__cxx1112basic_stringIcSt11char_traitsIcESaIcEEERKSt6vectorIPS7_SaISA_EEPPKcPN3amd6option7OptionsERKS9_IS6_SaIS6_EE
librocclr.so.5.1:_ZN6device7Program11setLanguageEPKcP20amd_comgr_language_s
librocclr.so.5.1:_ZN6device7Program12createActionE20amd_comgr_language_sRKSt6vectorINSt7__cxx1112basic_stringIcSt11char_traitsIcESaIcEEESaIS8_EEP23amd_comgr_action_info_sPb
librocclr.so.5.1:_ZN6device7Program12initClBinaryEPKcmimNSt7__cxx1112basic_stringIcSt11char_traitsIcESaIcEEE
librocclr.so.5.1:_ZN6device7Program12initClBinaryEv
librocclr.so.5.1:_ZN6device7Program13compileImplLCERKNSt7__cxx1112basic_stringIcSt11char_traitsIcESaIcEEERKSt6vectorIPS7_SaISA_EEPPKcPN3amd6option7OptionsERKS9_IS6_SaIS6_EE
librocclr.so.5.1:_ZN6device7Program13initFiniLock_E
librocclr.so.5.1:_ZN6device7Program13linkImplHSAILEPN3amd6option7OptionsE
librocclr.so.5.1:_ZN6device7Program13linkImplHSAILERKSt6vectorIPS0_SaIS2_EEPN3amd6option7OptionsEb
librocclr.so.5.1:_ZN6device7Program14ProcessOptionsB5cxx11EPN3amd6option7OptionsE
librocclr.so.5.1:_ZN6device7Program14addCodeObjDataEPKcm21amd_comgr_data_kind_sS2_P20amd_comgr_data_set_s
librocclr.so.5.1:_ZN6device7Program14runFiniKernelsEv
librocclr.so.5.1:_ZN6device7Program14runInitKernelsEv
librocclr.so.5.1:_ZN6device7Program15extractBuildLogE20amd_comgr_data_set_s
librocclr.so.5.1:_ZN6device7Program15linkLLVMBitcodeE20amd_comgr_data_set_sRKSt6vectorINSt7__cxx1112basic_stringIcSt11char_traitsIcESaIcEEESaIS8_EEbPN3amd6option7OptionsEPS1_PPcPm
librocclr.so.5.1:_ZN6device7Program15releaseClBinaryEv
librocclr.so.5.1:_ZN6device7Program15trySubstObjFileEPKcRKNSt7__cxx1112basic_stringIcSt11char_traitsIcESaIcEEEPKN3amd6option7OptionsE
librocclr.so.5.1:_ZN6device7Program16compileImplHSAILERKNSt7__cxx1112basic_stringIcSt11char_traitsIcESaIcEEERKSt6vectorIPS7_SaISA_EEPPKcPN3amd6option7OptionsE
librocclr.so.5.1:_ZN6device7Program17FindGlobalVarSizeEPvm
librocclr.so.5.1:_ZN6device7Program20addPreCompiledHeaderEP20amd_comgr_data_set_sRKSt6vectorINSt7__cxx1112basic_stringIcSt11char_traitsIcESaIcEEESaIS9_EE
librocclr.so.5.1:_ZN6device7Program20compileToLLVMBitcodeE20amd_comgr_data_set_sRKSt6vectorINSt7__cxx1112basic_stringIcSt11char_traitsIcESaIcEEESaIS8_EEPN3amd6option7OptionsEPPcPm
librocclr.so.5.1:_ZN6device7Program21extractByteCodeBinaryE20amd_comgr_data_set_s21amd_comgr_data_kind_sRKNSt7__cxx1112basic_stringIcSt11char_traitsIcESaIcEEEPPcPm
librocclr.so.5.1:_ZN6device7Program23ProcessOptionsFlattenedB5cxx11EPN3amd6option7OptionsE
librocclr.so.5.1:_ZN6device7Program23createKernelMetadataMapEPvm
librocclr.so.5.1:_ZN6device7Program24compileAndLinkExecutableE20amd_comgr_data_set_sRKSt6vectorINSt7__cxx1112basic_stringIcSt11char_traitsIcESaIcEEESaIS8_EEPN3amd6option7OptionsEPPcPm
librocclr.so.5.1:_ZN6device7Program26getCompileOptionsAtLinkingERKSt6vectorIPS0_SaIS2_EEPKN3amd6option7OptionsE
librocclr.so.5.1:_ZN6device7Program30getCompilationStagesFromBinaryERSt6vectorINS0_11file_type_tESaIS2_EERb
librocclr.so.5.1:_ZN6device7Program33getNextCompilationStageFromBinaryEPN3amd6option7OptionsE
librocclr.so.5.1:_ZN6device7Program4linkERKSt6vectorIPS0_SaIS2_EEPKcPN3amd6option7OptionsE
librocclr.so.5.1:_ZN6device7Program4loadEv
librocclr.so.5.1:_ZN6device7Program5buildERKNSt7__cxx1112basic_stringIcSt11char_traitsIcESaIcEEEPKcPN3amd6option7OptionsERKSt6vectorIS6_SaIS6_EE
librocclr.so.5.1:_ZN6device7Program5clearEv
librocclr.so.5.1:_ZN6device7Program6loadLCEv
librocclr.so.5.1:_ZN6device7Program7compileERKNSt7__cxx1112basic_stringIcSt11char_traitsIcESaIcEEERKSt6vectorIPS7_SaISA_EEPPKcSG_PN3amd6option7OptionsE
librocclr.so.5.1:_ZN6device7Program8linkImplEPN3amd6option7OptionsE
librocclr.so.5.1:_ZN6device7Program8linkImplERKSt6vectorIPS0_SaIS2_EEPN3amd6option7OptionsEb
librocclr.so.5.1:_ZN6device7Program9finiBuildEb
librocclr.so.5.1:_ZN6device7Program9initBuildEPN3amd6option7OptionsE
librocclr.so.5.1:_ZN6device7Program9loadHSAILEv
librocclr.so.5.1:_ZN6device7Program9setBinaryEPKcmPKS0_imNSt7__cxx1112basic_stringIcSt11char_traitsIcESaIcEEE
librocclr.so.5.1:_ZN6device7ProgramC2ERN3amd6DeviceERNS1_7ProgramE
librocclr.so.5.1:_ZN6device7ProgramD0Ev
librocclr.so.5.1:_ZN6device7ProgramD1Ev
librocclr.so.5.1:_ZN6device7ProgramD2Ev
librocclr.so.5.1:_ZN6device8ClBinary10decryptElfEPKcmPPcPmPi
librocclr.so.5.1:_ZN6device8ClBinary10resetElfInEv
librocclr.so.5.1:_ZN6device8ClBinary11resetElfOutEv
librocclr.so.5.1:_ZN6device8ClBinary12setElfTargetEv
librocclr.so.5.1:_ZN6device8ClBinary13saveBIFBinaryEPKcm
librocclr.so.5.1:_ZN6device8ClBinary14isRecompilableERNSt7__cxx1112basic_stringIcSt11char_traitsIcESaIcEEEN3amd3Elf11ElfPlatformE
librocclr.so.5.1:_ZN6device8ClBinary15createElfBinaryEbNS_7Program6type_tE
librocclr.so.5.1:_ZN6device8ClBinary16storeLinkOptionsERKNSt7__cxx1112basic_stringIcSt11char_traitsIcESaIcEEE
librocclr.so.5.1:_ZN6device8ClBinary19storeCompileOptionsERKNSt7__cxx1112basic_stringIcSt11char_traitsIcESaIcEEE
librocclr.so.5.1:_ZN6device8ClBinary4initEPN3amd6option7OptionsE
librocclr.so.5.1:_ZN6device8ClBinary7releaseEv
librocclr.so.5.1:_ZN6device8ClBinary8setElfInEv
librocclr.so.5.1:_ZN6device8ClBinary8setFlagsEi
librocclr.so.5.1:_ZN6device8ClBinary9setBinaryEPKcmbimNSt7__cxx1112basic_stringIcSt11char_traitsIcESaIcEEE
librocclr.so.5.1:_ZN6device8ClBinary9setElfOutEhPKcb
librocclr.so.5.1:_ZN6device8ClBinaryC1ERKN3amd6DeviceENS0_17BinaryImageFormatE
librocclr.so.5.1:_ZN6device8ClBinaryC2ERKN3amd6DeviceENS0_17BinaryImageFormatE
librocclr.so.5.1:_ZN6device8ClBinaryD0Ev
librocclr.so.5.1:_ZN6device8ClBinaryD1Ev
librocclr.so.5.1:_ZN6device8ClBinaryD2Ev
librocclr.so.5.1:_ZN6device8SettingsC1Ev
librocclr.so.5.1:_ZN6device8SettingsC2Ev
librocclr.so.5.1:_ZNK14HostcallBuffer10getPayloadEm
librocclr.so.5.1:_ZNK14HostcallBuffer9getHeaderEm
librocclr.so.5.1:_ZNK3amd14HwDebugManager14mapScratchRingEPmPj
librocclr.so.5.1:_ZNK3amd14HwDebugManager17getKernelParamMemEj
librocclr.so.5.1:_ZNK3amd14HwDebugManager18getExceptionPolicyEPv
librocclr.so.5.1:_ZNK3amd14HwDebugManager20getDispatchDebugInfoEPv
librocclr.so.5.1:_ZNK3amd14HwDebugManager22getKernelExecutionModeEPv
librocclr.so.5.1:_ZNK3amd16KernelParameters12localMemSizeEm
librocclr.so.5.1:_ZNK3amd16KernelParameters17boundToSvmPointerERKNS_6DeviceEPKhm
librocclr.so.5.1:_ZNK3amd16KernelParameters7releaseEPhRKNS_6DeviceE
librocclr.so.5.1:_ZNK3amd16MapMemoryCommand14isEntireMemoryEv
librocclr.so.5.1:_ZNK3amd17CopyMemoryCommand14isEntireMemoryEv
librocclr.so.5.1:_ZNK3amd17FillMemoryCommand14isEntireMemoryEv
librocclr.so.5.1:_ZNK3amd17ReadMemoryCommand14isEntireMemoryEv
librocclr.so.5.1:_ZNK3amd18WriteMemoryCommand14isEntireMemoryEv
librocclr.so.5.1:_ZNK3amd19SvmMapMemoryCommand14isEntireMemoryEv
librocclr.so.5.1:_ZNK3amd3Elf10getSectionENS0_11ElfSectionsEPPcPm
librocclr.so.5.1:_ZNK3amd3Elf10getSegmentEjRPNS_5ELFIO7segmentE
librocclr.so.5.1:_ZNK3amd3Elf12getSymbolNumEv
librocclr.so.5.1:_ZNK3amd3Elf13getSegmentNumEv
librocclr.so.5.1:_ZNK3amd3Elf13getSymbolInfoEjPNS0_10SymbolInfoE
librocclr.so.5.1:_ZNK3amd3Elf7getTypeERt
librocclr.so.5.1:_ZNK3amd3Elf8getFlagsERj
librocclr.so.5.1:_ZNK3amd3Elf9dumpImageERSiPPcPm
librocclr.so.5.1:_ZNK3amd3Elf9getSymbolENS0_11ElfSectionsEPKcPPcPm
librocclr.so.5.1:_ZNK3amd3Elf9getTargetERtRNS0_11ElfPlatformE
librocclr.so.5.1:_ZNK3amd3Elf9setupShdrENS0_11ElfSectionsEPNS_5ELFIO7sectionEj
librocclr.so.5.1:_ZNK3amd3Isa13processorNameB5cxx11Ev
librocclr.so.5.1:_ZNK3amd3Isa7isaNameB5cxx11Ev
librocclr.so.5.1:_ZNK3amd5Event16processCallbacksEi
librocclr.so.5.1:_ZNK3amd5Image14validateRegionERKNS_7Coord3DES3_
librocclr.so.5.1:_ZNK3amd5Image15isRowSliceValidEmmmm
librocclr.so.5.1:_ZNK3amd5Image17isEntirelyCoveredERKNS_7Coord3DES3_
librocclr.so.5.1:_ZNK3amd5Image6Format11formatColorEPKvPv
librocclr.so.5.1:_ZNK3amd5Image6Format11isSupportedERKNS_7ContextEjm
librocclr.so.5.1:_ZNK3amd5Image6Format14getElementSizeEv
librocclr.so.5.1:_ZNK3amd5Image6Format14getNumChannelsEv
librocclr.so.5.1:_ZNK3amd5Image6Format15getChannelOrderEPh
librocclr.so.5.1:_ZNK3amd5Image6Format7isValidEv
librocclr.so.5.1:_ZNK3amd6Buffer14validateRegionERKNS_7Coord3DES3_
librocclr.so.5.1:_ZNK3amd6Buffer17isEntirelyCoveredERKNS_7Coord3DES3_
librocclr.so.5.1:_ZNK3amd6Device10addVACacheEPN6device6MemoryE
librocclr.so.5.1:_ZNK3amd6Device13removeVACacheEPKN6device6MemoryE
librocclr.so.5.1:_ZNK3amd6Device16findMemoryFromVAEPKvPm
librocclr.so.5.1:_ZNK3amd6Kernel15getDeviceKernelERKNS_6DeviceE
librocclr.so.5.1:_ZNK3amd6Kernel9signatureEv
librocclr.so.5.1:_ZNK3amd6Memory14usesSvmPointerEv
librocclr.so.5.1:_ZNK3amd6Symbol15getDeviceKernelERKNS_6DeviceE
librocclr.so.5.1:_ZNK3amd6option7Options18isCStrOptionsEqualEPKcS3_
librocclr.so.5.1:_ZNK3amd6option7Options6equalsERKS1_b
librocclr.so.5.1:_ZNK3amd7Command7contextEv
librocclr.so.5.1:_ZNK3amd7Context14containsDeviceEPKNS_6DeviceE
librocclr.so.5.1:_ZNK3amd7Context14defDeviceQueueERKNS_6DeviceE
librocclr.so.5.1:_ZNK3amd7Context7svmFreeEPv
librocclr.so.5.1:_ZNK3amd7Context8hostFreeEPv
librocclr.so.5.1:_ZNK3amd7Context9hostAllocEmmb
librocclr.so.5.1:_ZNK3amd7NDRangeeqERKS0_
librocclr.so.5.1:_ZNK3amd7NDRangeeqEm
librocclr.so.5.1:_ZNK3amd7Program10findSymbolEPKc
librocclr.so.5.1:_ZNK3amd7Program16getDeviceProgramERKNS_6DeviceE
librocclr.so.5.1:_ZNK3roc10VirtualGPU14enableSyncBlitEv
librocclr.so.5.1:_ZNK3roc10VirtualGPU19updateCommandsStateEPN3amd7CommandE
librocclr.so.5.1:_ZNK3roc11PerfCounter7getInfoEm
librocclr.so.5.1:_ZNK3roc14DmaBlitManager10copyBufferERN6device6MemoryES3_RKN3amd7Coord3DES7_S7_b
librocclr.so.5.1:_ZNK3roc14DmaBlitManager10readBufferERN6device6MemoryEPvRKN3amd7Coord3DES8_b
librocclr.so.5.1:_ZNK3roc14DmaBlitManager10writeImageEPKvRN6device6MemoryERKN3amd7Coord3DES9_mmb
librocclr.so.5.1:_ZNK3roc14DmaBlitManager11writeBufferEPKvRN6device6MemoryERKN3amd7Coord3DES9_b
librocclr.so.5.1:_ZNK3roc14DmaBlitManager13hsaCopyStagedEPKhPhmS3_b
librocclr.so.5.1:_ZNK3roc14DmaBlitManager13pinHostMemoryEPKvmRm
librocclr.so.5.1:_ZNK3roc14DmaBlitManager14copyBufferRectERN6device6MemoryES3_RKN3amd10BufferRectES7_RKNS4_7Coord3DEb
librocclr.so.5.1:_ZNK3roc14DmaBlitManager14readBufferRectERN6device6MemoryEPvRKN3amd10BufferRectES8_RKNS5_7Coord3DEb
librocclr.so.5.1:_ZNK3roc14DmaBlitManager15writeBufferRectEPKvRN6device6MemoryERKN3amd10BufferRectES9_RKNS6_7Coord3DEb
librocclr.so.5.1:_ZNK3roc14DmaBlitManager16readMemoryStagedERNS_6MemoryEPvS2_mRmS4_m
librocclr.so.5.1:_ZNK3roc14DmaBlitManager17copyBufferToImageERN6device6MemoryES3_RKN3amd7Coord3DES7_S7_bmm
librocclr.so.5.1:_ZNK3roc14DmaBlitManager17copyImageToBufferERN6device6MemoryES3_RKN3amd7Coord3DES7_S7_bmm
librocclr.so.5.1:_ZNK3roc14DmaBlitManager17writeMemoryStagedEPKvRNS_6MemoryES4_mRmS5_m
librocclr.so.5.1:_ZNK3roc14DmaBlitManager7hsaCopyERKNS_6MemoryES3_RKN3amd7Coord3DES7_S7_bb
librocclr.so.5.1:_ZNK3roc14DmaBlitManager9copyImageERN6device6MemoryES3_RKN3amd7Coord3DES7_S7_b
librocclr.so.5.1:_ZNK3roc14DmaBlitManager9readImageERN6device6MemoryEPvRKN3amd7Coord3DES8_mmb
librocclr.so.5.1:_ZNK3roc17KernelBlitManager10RunGwsInitEj
librocclr.so.5.1:_ZNK3roc17KernelBlitManager10copyBufferERN6device6MemoryES3_RKN3amd7Coord3DES7_S7_b
librocclr.so.5.1:_ZNK3roc17KernelBlitManager10createViewERKNS_6MemoryE16_cl_image_formatm
librocclr.so.5.1:_ZNK3roc17KernelBlitManager10fillBufferERN6device6MemoryEPKvmRKN3amd7Coord3DES9_bb
librocclr.so.5.1:_ZNK3roc17KernelBlitManager10readBufferERN6device6MemoryEPvRKN3amd7Coord3DES8_b
librocclr.so.5.1:_ZNK3roc17KernelBlitManager10writeImageEPKvRN6device6MemoryERKN3amd7Coord3DES9_mmb
librocclr.so.5.1:_ZNK3roc17KernelBlitManager11writeBufferEPKvRN6device6MemoryERKN3amd7Coord3DES9_b
librocclr.so.5.1:_ZNK3roc17KernelBlitManager13streamOpsWaitERN6device6MemoryEmmmm
librocclr.so.5.1:_ZNK3roc17KernelBlitManager14copyBufferRectERN6device6MemoryES3_RKN3amd10BufferRectES7_RKNS4_7Coord3DEb
librocclr.so.5.1:_ZNK3roc17KernelBlitManager14readBufferRectERN6device6MemoryEPvRKN3amd10BufferRectES8_RKNS5_7Coord3DEb
librocclr.so.5.1:_ZNK3roc17KernelBlitManager14streamOpsWriteERN6device6MemoryEmm
librocclr.so.5.1:_ZNK3roc17KernelBlitManager15writeBufferRectEPKvRN6device6MemoryERKN3amd10BufferRectES9_RKNS6_7Coord3DEb
librocclr.so.5.1:_ZNK3roc17KernelBlitManager16captureArgumentsEPKN3amd6KernelE
librocclr.so.5.1:_ZNK3roc17KernelBlitManager16releaseArgumentsEPh
librocclr.so.5.1:_ZNK3roc17KernelBlitManager17copyBufferToImageERN6device6MemoryES3_RKN3amd7Coord3DES7_S7_bmm
librocclr.so.5.1:_ZNK3roc17KernelBlitManager17copyImageToBufferERN6device6MemoryES3_RKN3amd7Coord3DES7_S7_bmm
librocclr.so.5.1:_ZNK3roc17KernelBlitManager23copyBufferToImageKernelERN6device6MemoryES3_RKN3amd7Coord3DES7_S7_bmm
librocclr.so.5.1:_ZNK3roc17KernelBlitManager23copyImageToBufferKernelERN6device6MemoryES3_RKN3amd7Coord3DES7_S7_bmm
librocclr.so.5.1:_ZNK3roc17KernelBlitManager9copyImageERN6device6MemoryES3_RKN3amd7Coord3DES7_S7_b
librocclr.so.5.1:_ZNK3roc17KernelBlitManager9fillImageERN6device6MemoryEPKvRKN3amd7Coord3DES9_b
librocclr.so.5.1:_ZNK3roc17KernelBlitManager9readImageERN6device6MemoryEPvRKN3amd7Coord3DES8_mmb
librocclr.so.5.1:_ZNK3roc6Device12SvmAllocInitEPvm
librocclr.so.5.1:_ZNK3roc6Device12addMapTargetEPN3amd6MemoryE
librocclr.so.5.1:_ZNK3roc6Device12createMemoryERN3amd6MemoryE
librocclr.so.5.1:_ZNK3roc6Device12createSignalEv
librocclr.so.5.1:_ZNK3roc6Device12getGpuMemoryEPN3amd6MemoryE
librocclr.so.5.1:_ZNK3roc6Device12getRocMemoryEPN3amd6MemoryE
librocclr.so.5.1:_ZNK3roc6Device13createSamplerERKN3amd7SamplerEPPN6device7SamplerE
librocclr.so.5.1:_ZNK3roc6Device13findMapTargetEm
librocclr.so.5.1:_ZNK3roc6Device13hostNumaAllocEmmb
librocclr.so.5.1:_ZNK3roc6Device14IsHwEventReadyERKN3amd5EventEb
librocclr.so.5.1:_ZNK3roc6Device14hostAgentAllocEmRKNS_9AgentInfoEb
librocclr.so.5.1:_ZNK3roc6Device16GetSvmAttributesEPPvPmPimPKvm
librocclr.so.5.1:_ZNK3roc6Device16SetSvmAttributesEPKvmN3amd12MemoryAdviceEb
librocclr.so.5.1:_ZNK3roc6Device16deviceLocalAllocEmb
librocclr.so.5.1:_ZNK3roc6Device16globalFreeMemoryEPm
librocclr.so.5.1:_ZNK3roc6Device17deviceAllowAccessEPv
librocclr.so.5.1:_ZNK3roc6Device19ReleaseGlobalSignalEPv
librocclr.so.5.1:_ZNK3roc6Device19SetSvmAttributesIntEPKvmN3amd12MemoryAdviceEbb
librocclr.so.5.1:_ZNK3roc6Device25ReleaseExclusiveGpuAccessERNS_10VirtualGPUE
librocclr.so.5.1:_ZNK3roc6Device7memFreeEPvm
librocclr.so.5.1:_ZNK3roc6Device7svmFreeEPv
librocclr.so.5.1:_ZNK3roc6Device8hostFreeEPvm
librocclr.so.5.1:_ZNK3roc6Device8svmAllocERN3amd7ContextEmmmPv
librocclr.so.5.1:_ZNK3roc6Device9IpcAttachEPKvmmjPPv
librocclr.so.5.1:_ZNK3roc6Device9IpcCreateEPvPmS1_S2_
librocclr.so.5.1:_ZNK3roc6Device9IpcDetachEPv
librocclr.so.5.1:_ZNK3roc6Device9hostAllocEmmN3amd6Device13MemorySegmentE
librocclr.so.5.1:_ZNK3roc6Device9xferQueueEv
librocclr.so.5.1:_ZNK3roc7Program18createGlobalVarObjEPPN3amd6MemoryEPPvPmPKc
librocclr.so.5.1:_ZNK3roc7Sampler20fillSampleDescriptorER28hsa_ext_sampler_descriptor_sRKN3amd7SamplerE
librocclr.so.5.1:_ZNK3roc9PrintfDbg10checkFloatERKNSt7__cxx1112basic_stringIcSt11char_traitsIcESaIcEEE
librocclr.so.5.1:_ZNK3roc9PrintfDbg11checkStringERKNSt7__cxx1112basic_stringIcSt11char_traitsIcESaIcEEE
librocclr.so.5.1:_ZNK3roc9PrintfDbg14outputArgumentERKNSt7__cxx1112basic_stringIcSt11char_traitsIcESaIcEEEbmPKj
librocclr.so.5.1:_ZNK3roc9PrintfDbg15outputDbgBufferERKN6device10PrintfInfoEPKjRm
librocclr.so.5.1:_ZNK3roc9PrintfDbg20checkVectorSpecifierERKNSt7__cxx1112basic_stringIcSt11char_traitsIcESaIcEEEmRm
librocclr.so.5.1:_ZNK6device13VirtualDevice10ActiveWaitEv
librocclr.so.5.1:_ZNK6device15HostBlitManager10copyBufferERNS_6MemoryES2_RKN3amd7Coord3DES6_S6_b
librocclr.so.5.1:_ZNK6device15HostBlitManager10fillBufferERNS_6MemoryEPKvmRKN3amd7Coord3DES8_bb
librocclr.so.5.1:_ZNK6device15HostBlitManager10readBufferERNS_6MemoryEPvRKN3amd7Coord3DES7_b
librocclr.so.5.1:_ZNK6device15HostBlitManager10writeImageEPKvRNS_6MemoryERKN3amd7Coord3DES8_mmb
librocclr.so.5.1:_ZNK6device15HostBlitManager11writeBufferEPKvRNS_6MemoryERKN3amd7Coord3DES8_b
librocclr.so.5.1:_ZNK6device15HostBlitManager14copyBufferRectERNS_6MemoryES2_RKN3amd10BufferRectES6_RKNS3_7Coord3DEb
librocclr.so.5.1:_ZNK6device15HostBlitManager14readBufferRectERNS_6MemoryEPvRKN3amd10BufferRectES7_RKNS4_7Coord3DEb
librocclr.so.5.1:_ZNK6device15HostBlitManager15writeBufferRectEPKvRNS_6MemoryERKN3amd10BufferRectES8_RKNS5_7Coord3DEb
librocclr.so.5.1:_ZNK6device15HostBlitManager17copyBufferToImageERNS_6MemoryES2_RKN3amd7Coord3DES6_S6_bmm
librocclr.so.5.1:_ZNK6device15HostBlitManager17copyImageToBufferERNS_6MemoryES2_RKN3amd7Coord3DES6_S6_bmm
librocclr.so.5.1:_ZNK6device15HostBlitManager7sRGBmapEf
librocclr.so.5.1:_ZNK6device15HostBlitManager9copyImageERNS_6MemoryES2_RKN3amd7Coord3DES6_S6_b
librocclr.so.5.1:_ZNK6device15HostBlitManager9fillImageERNS_6MemoryEPKvRKN3amd7Coord3DES8_b
librocclr.so.5.1:_ZNK6device15HostBlitManager9readImageERNS_6MemoryEPvRKN3amd7Coord3DES7_mmb
librocclr.so.5.1:_ZNK6device18WaveLimiterManager13getWavesPerSHEPKNS_13VirtualDeviceE
librocclr.so.5.1:_ZNK6device18WaveLimiterManager4nameB5cxx11Ev
librocclr.so.5.1:_ZNK6device6Kernel17FindLocalWorkSizeEmRKN3amd7NDRangeERS2_
librocclr.so.5.1:_ZNK6device7Program15getLoweredNamesEPSt6vectorINSt7__cxx1112basic_stringIcSt11char_traitsIcESaIcEEESaIS7_EE
librocclr.so.5.1:_ZNK6device7Program16getDemangledNameERKNSt7__cxx1112basic_stringIcSt11char_traitsIcESaIcEEERS6_
librocclr.so.5.1:_ZNK6device7Program17runInitFiniKernelENS0_13kernel_kind_tE
librocclr.so.5.1:_ZNK6device7Program21getSymbolsFromCodeObjEPSt6vectorINSt7__cxx1112basic_stringIcSt11char_traitsIcESaIcEEESaIS7_EE23amd_comgr_symbol_type_s
librocclr.so.5.1:_ZNK6device7Program23getGlobalVarFromCodeObjEPSt6vectorINSt7__cxx1112basic_stringIcSt11char_traitsIcESaIcEEESaIS7_EE
librocclr.so.5.1:_ZNK6device7Program24getGlobalFuncFromCodeObjEPSt6vectorINSt7__cxx1112basic_stringIcSt11char_traitsIcESaIcEEESaIS7_EE
librocclr.so.5.1:_ZNK6device8ClBinary14loadLlvmBinaryERNSt7__cxx1112basic_stringIcSt11char_traitsIcESaIcEEERN3amd3Elf11ElfSectionsE
librocclr.so.5.1:_ZNK6device8ClBinary15loadLinkOptionsERNSt7__cxx1112basic_stringIcSt11char_traitsIcESaIcEEE
librocclr.so.5.1:_ZNK6device8ClBinary18loadCompileOptionsERNSt7__cxx1112basic_stringIcSt11char_traitsIcESaIcEEE
librocclr.so.5.1:_ZNK6device8ClBinary4dataEv
librocclr.so.5.1:_ZNK6device8ClBinary6DatafdEv
librocclr.so.5.1:_ZNK6device8ClBinary6isSPIREv
librocclr.so.5.1:_ZNK6device8ClBinary7DataURIB5cxx11Ev
librocclr.so.5.1:_ZNK6device8ClBinary7isSPIRVEv
librocclr.so.5.1:_ZTIN3amd10AppProfileE
librocclr.so.5.1:_ZTIN3amd11DeviceQueueE
librocclr.so.5.1:_ZTIN3amd14HwDebugManagerE
librocclr.so.5.1:_ZTIN3amd18UnmapMemoryCommandE
librocclr.so.5.1:_ZTIN3amd20NDRangeKernelCommandE
librocclr.so.5.1:_ZTIN3amd24AcquireExtObjectsCommandE
librocclr.so.5.1:_ZTIN3amd24ReleaseExtObjectsCommandE
librocclr.so.5.1:_ZTIN3amd25TransferBufferFileCommandE
librocclr.so.5.1:_ZTIN3amd4PipeE
librocclr.so.5.1:_ZTIN3amd5EventE
librocclr.so.5.1:_ZTIN3amd5ImageE
librocclr.so.5.1:_ZTIN3amd6BufferE
librocclr.so.5.1:_ZTIN3amd6DeviceE
librocclr.so.5.1:_ZTIN3amd6KernelE
librocclr.so.5.1:_ZTIN3amd6MemoryE
librocclr.so.5.1:_ZTIN3amd6ThreadE
librocclr.so.5.1:_ZTIN3amd7CommandE
librocclr.so.5.1:_ZTIN3amd7ContextE
librocclr.so.5.1:_ZTIN3amd7ProgramE
librocclr.so.5.1:_ZTIN3amd9HostQueueE
librocclr.so.5.1:_ZTIN3roc10AppProfileE
librocclr.so.5.1:_ZTIN3roc10NullDeviceE
librocclr.so.5.1:_ZTIN3roc10VirtualGPUE
librocclr.so.5.1:_ZTIN3roc11PerfCounterE
librocclr.so.5.1:_ZTIN3roc12HSAILProgramE
librocclr.so.5.1:_ZTIN3roc14DmaBlitManagerE
librocclr.so.5.1:_ZTIN3roc15LightningKernelE
librocclr.so.5.1:_ZTIN3roc15ProfilingSignalE
librocclr.so.5.1:_ZTIN3roc16LightningProgramE
librocclr.so.5.1:_ZTIN3roc17KernelBlitManagerE
librocclr.so.5.1:_ZTIN3roc18PerfCounterProfileE
librocclr.so.5.1:_ZTIN3roc5ImageE
librocclr.so.5.1:_ZTIN3roc6BufferE
librocclr.so.5.1:_ZTIN3roc6DeviceE
librocclr.so.5.1:_ZTIN3roc6MemoryE
librocclr.so.5.1:_ZTIN3roc6SignalE
librocclr.so.5.1:_ZTIN3roc7ProgramE
librocclr.so.5.1:_ZTIN3roc7SamplerE
librocclr.so.5.1:_ZTIN6device11WaveLimiterE
librocclr.so.5.1:_ZTIN6device15HostBlitManagerE
librocclr.so.5.1:_ZTIN6device17WLAlgorithmSmoothE
librocclr.so.5.1:_ZTIN6device18WaveLimiterManagerE
librocclr.so.5.1:_ZTIN6device6KernelE
librocclr.so.5.1:_ZTIN6device7ProgramE
librocclr.so.5.1:_ZTIN6device8ClBinaryE
librocclr.so.5.1:_ZTSN3amd10AppProfileE
librocclr.so.5.1:_ZTSN3amd11DeviceQueueE
librocclr.so.5.1:_ZTSN3amd14HwDebugManagerE
librocclr.so.5.1:_ZTSN3amd18UnmapMemoryCommandE
librocclr.so.5.1:_ZTSN3amd20NDRangeKernelCommandE
librocclr.so.5.1:_ZTSN3amd24AcquireExtObjectsCommandE
librocclr.so.5.1:_ZTSN3amd24ReleaseExtObjectsCommandE
librocclr.so.5.1:_ZTSN3amd25TransferBufferFileCommandE
librocclr.so.5.1:_ZTSN3amd4PipeE
librocclr.so.5.1:_ZTSN3amd5EventE
librocclr.so.5.1:_ZTSN3amd5ImageE
librocclr.so.5.1:_ZTSN3amd6BufferE
librocclr.so.5.1:_ZTSN3amd6DeviceE
librocclr.so.5.1:_ZTSN3amd6KernelE
librocclr.so.5.1:_ZTSN3amd6MemoryE
librocclr.so.5.1:_ZTSN3amd6ThreadE
librocclr.so.5.1:_ZTSN3amd7CommandE
librocclr.so.5.1:_ZTSN3amd7ContextE
librocclr.so.5.1:_ZTSN3amd7ProgramE
librocclr.so.5.1:_ZTSN3amd9HostQueueE
librocclr.so.5.1:_ZTSN3roc10AppProfileE
librocclr.so.5.1:_ZTSN3roc10NullDeviceE
librocclr.so.5.1:_ZTSN3roc10VirtualGPUE
librocclr.so.5.1:_ZTSN3roc11PerfCounterE
librocclr.so.5.1:_ZTSN3roc12HSAILProgramE
librocclr.so.5.1:_ZTSN3roc14DmaBlitManagerE
librocclr.so.5.1:_ZTSN3roc15LightningKernelE
librocclr.so.5.1:_ZTSN3roc15ProfilingSignalE
librocclr.so.5.1:_ZTSN3roc16LightningProgramE
librocclr.so.5.1:_ZTSN3roc17KernelBlitManagerE
librocclr.so.5.1:_ZTSN3roc18PerfCounterProfileE
librocclr.so.5.1:_ZTSN3roc5ImageE
librocclr.so.5.1:_ZTSN3roc6BufferE
librocclr.so.5.1:_ZTSN3roc6DeviceE
librocclr.so.5.1:_ZTSN3roc6MemoryE
librocclr.so.5.1:_ZTSN3roc6SignalE
librocclr.so.5.1:_ZTSN3roc7ProgramE
librocclr.so.5.1:_ZTSN3roc7SamplerE
librocclr.so.5.1:_ZTSN6device11WaveLimiterE
librocclr.so.5.1:_ZTSN6device15HostBlitManagerE
librocclr.so.5.1:_ZTSN6device17WLAlgorithmSmoothE
librocclr.so.5.1:_ZTSN6device18WaveLimiterManagerE
librocclr.so.5.1:_ZTSN6device6KernelE
librocclr.so.5.1:_ZTSN6device7ProgramE
librocclr.so.5.1:_ZTSN6device8ClBinaryE
librocclr.so.5.1:_ZTVN3amd10AppProfileE
librocclr.so.5.1:_ZTVN3amd11DeviceQueueE
librocclr.so.5.1:_ZTVN3amd14HwDebugManagerE
librocclr.so.5.1:_ZTVN3amd18UnmapMemoryCommandE
librocclr.so.5.1:_ZTVN3amd20NDRangeKernelCommandE
librocclr.so.5.1:_ZTVN3amd24AcquireExtObjectsCommandE
librocclr.so.5.1:_ZTVN3amd24ReleaseExtObjectsCommandE
librocclr.so.5.1:_ZTVN3amd25TransferBufferFileCommandE
librocclr.so.5.1:_ZTVN3amd4PipeE
librocclr.so.5.1:_ZTVN3amd5EventE
librocclr.so.5.1:_ZTVN3amd5ImageE
librocclr.so.5.1:_ZTVN3amd6BufferE
librocclr.so.5.1:_ZTVN3amd6DeviceE
librocclr.so.5.1:_ZTVN3amd6KernelE
librocclr.so.5.1:_ZTVN3amd6MemoryE
librocclr.so.5.1:_ZTVN3amd6ThreadE
librocclr.so.5.1:_ZTVN3amd7CommandE
librocclr.so.5.1:_ZTVN3amd7ContextE
librocclr.so.5.1:_ZTVN3amd7ProgramE
librocclr.so.5.1:_ZTVN3amd9HostQueueE
librocclr.so.5.1:_ZTVN3roc10AppProfileE
librocclr.so.5.1:_ZTVN3roc10NullDeviceE
librocclr.so.5.1:_ZTVN3roc10VirtualGPUE
librocclr.so.5.1:_ZTVN3roc11PerfCounterE
librocclr.so.5.1:_ZTVN3roc12HSAILProgramE
librocclr.so.5.1:_ZTVN3roc14DmaBlitManagerE
librocclr.so.5.1:_ZTVN3roc15LightningKernelE
librocclr.so.5.1:_ZTVN3roc15ProfilingSignalE
librocclr.so.5.1:_ZTVN3roc16LightningProgramE
librocclr.so.5.1:_ZTVN3roc17KernelBlitManagerE
librocclr.so.5.1:_ZTVN3roc18PerfCounterProfileE
librocclr.so.5.1:_ZTVN3roc5ImageE
librocclr.so.5.1:_ZTVN3roc6BufferE
librocclr.so.5.1:_ZTVN3roc6DeviceE
librocclr.so.5.1:_ZTVN3roc6MemoryE
librocclr.so.5.1:_ZTVN3roc6SignalE
librocclr.so.5.1:_ZTVN3roc7ProgramE
librocclr.so.5.1:_ZTVN3roc7SamplerE
librocclr.so.5.1:_ZTVN6device11WaveLimiterE
librocclr.so.5.1:_ZTVN6device15HostBlitManagerE
librocclr.so.5.1:_ZTVN6device17WLAlgorithmSmoothE
librocclr.so.5.1:_ZTVN6device18WaveLimiterManagerE
librocclr.so.5.1:_ZTVN6device6KernelE
librocclr.so.5.1:_ZTVN6device7ProgramE
librocclr.so.5.1:_ZTVN6device8ClBinaryE
librocclr.so.5.1:breakpoint
librocclr.so.5.1:hostcallListener
librocclr.so.5.1:listenerLock
librocclr.so.5.1:numAllocs
